******************************************************************************
               TMS320C6x Linker PC v7.4.1                      
******************************************************************************
>> Linked Tue Nov 21 10:23:09 2017

OUTPUT FILE NAME:   <BD_Bistatic_SAR.out>
ENTRY POINT SYMBOL: "_c_int00"  address: 0c12cdc0


MEMORY CONFIGURATION

         name            origin    length      used     unused   attr    fill
----------------------  --------  ---------  --------  --------  ----  --------
  L2SRAM                00800000   00080000  0002f940  000506c0  RW X
  L1PSRAM               00e00000   00008000  00000000  00008000  RW X
  L1DSRAM               00f00000   00008000  00000000  00008000  RW  
  MSMCSRAM              0c000000   00400000  001e9bd0  00216430  RW X
  DDR3                  80000000   20000000  00300000  1fd00000  RW X


SEGMENT ALLOCATION MAP

run origin  load origin   length   init length attrs members
----------  ----------- ---------- ----------- ----- -------
00800000    00800000    00027828   00020028    rw-
  00800000    00800000    00020028   00020028    rw- .L2
  00820028    00820028    00007800   00000000    rw- .far:taskStackSection
00827828    00827828    0000000c   0000000c    rw-
  00827828    00827828    0000000c   0000000c    rw- .Raco_Vec_C6678_L2
00827880    00827880    00007488   00000000    rw-
  00827880    00827880    00004000   00000000    rw- .resmgr_memregion
  0082b880    0082b880    00002000   00000000    rw- .stack
  0082d880    0082d880    00001488   00000000    rw- .resmgr_pa
0082ed80    0082ed80    00000721   00000721    rw-
  0082ed80    0082ed80    00000721   00000721    rw- .qmssL2Mem
0082f4a8    0082f4a8    000001a4   000001a4    rw-
  0082f4a8    0082f4a8    000001a4   000001a4    rw- .CoreIntcL2Mem
0082f680    0082f680    00000318   00000318    rw-
  0082f680    0082f680    00000318   00000318    rw- .nimu_eth_ll2
0082f9a0    0082f9a0    000000a0   00000000    rw-
  0082f9a0    0082f9a0    000000a0   00000000    rw- .resmgr_handles
0c000000    0c000000    00010000   00010000    r-x
  0c000000    0c000000    00010000   00010000    r-x .text.1
0c010000    0c010000    000600c0   00000000    rw-
  0c010000    0c010000    000600c0   00000000    rw- .TI.bound:Srio_Recv_L3
0c0700c0    0c0700c0    00083840   00000000    rw-
  0c0700c0    0c0700c0    00083840   00000000    rw- .L3
0c0f3900    0c0f3900    00040840   00040840    r-x
  0c0f3900    0c0f3900    00040840   00040840    r-x .text.2
0c134140    0c134140    0004d784   0004d784    rw-
  0c134140    0c134140    0004d784   0004d784    rw- .far
0c1818d0    0c1818d0    00000030   00000030    r--
  0c1818d0    0c1818d0    00000030   00000030    r-- .const.1
0c181900    0c181900    0004b900   00000000    rw-
  0c181900    0c181900    0004b900   00000000    rw- .far:NDK_PACKETMEM
0c1cd200    0c1cd200    00000200   00000200    r--
  0c1cd200    0c1cd200    00000200   00000200    r-- .const.2
0c1cd400    0c1cd400    00002420   00000000    rw-
  0c1cd400    0c1cd400    00002420   00000000    rw- .qmssSharedMem
0c1cf880    0c1cf880    00001c00   00001c00    rw-
  0c1cf880    0c1cf880    00001c00   00001c00    rw- .cppiSharedMem
0c1d1500    0c1d1500    00007004   00007004    rw-
  0c1d1500    0c1d1500    00007004   00007004    rw- .srioSharedMem
0c1d8580    0c1d8580    00000010   00000000    rw-
  0c1d8580    0c1d8580    00000010   00000000    rw- .ChipIntc
0c1d8800    0c1d8800    000092ee   000092ee    r-x
  0c1d8800    0c1d8800    00000200   00000200    r-x .csl_vect
  0c1d8a00    0c1d8a00    000090ee   000090ee    r-- .const.3
0c1e1af0    0c1e1af0    00000010   00000010    rw-
  0c1e1af0    0c1e1af0    00000010   00000010    rw- .fardata.1
0c1e1b00    0c1e1b00    00002400   00000000    rw-
  0c1e1b00    0c1e1b00    00002400   00000000    rw- .qmss
0c1e3f00    0c1e3f00    000018ba   000018ba    rw-
  0c1e3f00    0c1e3f00    000018ba   000018ba    rw- .fardata.2
0c1e57c0    0c1e57c0    00002370   00001370    rw-
  0c1e57c0    0c1e57c0    00001370   00001370    rw- platform_lib
  0c1e6b30    0c1e6b30    00001000   00000000    rw- .far:NDK_OBJMEM
0c1e7b30    0c1e7b30    000000c8   000000c8    r--
  0c1e7b30    0c1e7b30    000000c8   000000c8    r-- .switch.1
0c1e7c00    0c1e7c00    00000460   00000460    r-x
  0c1e7c00    0c1e7c00    00000200   00000200    r-x .vecs
  0c1e7e00    0c1e7e00    00000260   00000260    r-- .switch.2
0c1e8080    0c1e8080    00000200   00000000    rw-
  0c1e8080    0c1e8080    00000200   00000000    rw- .cppi
0c1e8280    0c1e8280    000001d1   000001d1    rw-
  0c1e8280    0c1e8280    000000b0   000000b0    rw- .bss
  0c1e8330    0c1e8330    00000121   00000121    rw- .neardata
0c1e8454    0c1e8454    00000040   00000040    r--
  0c1e8454    0c1e8454    00000040   00000040    r-- .rodata
0c1e84a0    0c1e84a0    000001c0   000001c0    r-x
  0c1e84a0    0c1e84a0    000001c0   000001c0    r-x .racovec
0c1e8660    0c1e8660    00000120   00000000    rw-
  0c1e8660    0c1e8660    00000120   00000000    rw- .cio
0c1e8780    0c1e8780    00001498   00001498    r--
  0c1e8780    0c1e8780    00001498   00001498    r-- .cinit
80000000    80000000    00300000   00000000    rw-
  80000000    80000000    00300000   00000000    rw- systemHeap


SECTION ALLOCATION MAP

 output                                  attributes/
section   page    origin      length       input sections
--------  ----  ----------  ----------   ----------------
.init_array 
*          0    0c000000    00000000     UNINITIALIZED

.L2        0    00800000    00020028     
                  00800000    00020000     GlobalVar.obj (.L2:uninit) [fill = 0]
                  00820000    00000010     GlobalVar.obj (.L2:init)
                  00820010    00000010     utils_syn.obj (.L2:init)
                  00820020    00000008     utils_syn.obj (.L2:uninit) [fill = 0]

.far:taskStackSection 
*          0    00820028    00007800     UNINITIALIZED
                  00820028    00007800     app_pe66.oe66 (.far:taskStackSection)

.Raco_Vec_C6678_L2 
*          0    00827828    0000000c     
                  00827828    00000008     Raco_Vec_C6678.lib : Raco_Vec_C6678_SYN_MultiCore.obj (.Raco_Vec_C6678_L2:SYN:init)
                  00827830    00000004                        : Raco_Vec_C6678_SYN_MultiCore.obj (.Raco_Vec_C6678_L2:SYN:uninit) [fill = 0]

.resmgr_memregion 
*          0    00827880    00004000     UNINITIALIZED
                  00827880    00004000     resourcemgr.obj (.resmgr_memregion)

.stack     0    0082b880    00002000     UNINITIALIZED
                  0082b880    00000008     boot.ae66 : boot.oe66 (.stack)
                  0082b888    00001ff8     --HOLE--

.resmgr_pa 
*          0    0082d880    00001488     UNINITIALIZED
                  0082d880    00001488     resourcemgr.obj (.resmgr_pa)

.srioL2Mem 
*          0    0082ed80    00000000     UNINITIALIZED

.qmssL2Mem 
*          0    0082ed80    00000721     
                  0082ed80    00000720     c6678_2dsp_ddr3_vpx_lib.lib : qmss_drv.obj (.qmssL2Mem:uninit) [fill = 0]
                  0082f4a0    00000001                                 : qmss_drv.obj (.qmssL2Mem:init)

.cppiL2Mem 
*          0    0082f4a1    00000000     UNINITIALIZED

.CoreIntcL2Mem 
*          0    0082f4a8    000001a4     
                  0082f4a8    000000f0     c6678_2dsp_ddr3_vpx_lib.lib : intc.obj (.CoreIntcL2Mem:init)
                  0082f598    000000b4                                 : intc.obj (.CoreIntcL2Mem:uninit) [fill = 0]

.edma3     0    0082f64c    00000000     UNINITIALIZED

.VlfftSyn 
*          0    0082f64c    00000000     UNINITIALIZED

.nimu_eth_ll2 
*          0    0082f680    00000318     
                  0082f680    00000308     ti.transport.ndk.nimu.ae66 : nimu_eth.obj (.nimu_eth_ll2:uninit) [fill = 0]
                  0082f988    00000010                                : nimu_eth.obj (.nimu_eth_ll2:init)

.resmgr_handles 
*          0    0082f9a0    000000a0     UNINITIALIZED
                  0082f9a0    000000a0     resourcemgr.obj (.resmgr_handles)

xdc.meta   0    0c000000    000000f0     COPY SECTION
                  0c000000    000000f0     app_pe66.oe66 (xdc.meta)

.text.1    0    0c000000    00010000     
                  0c000000    00005160     c6678_2dsp_ddr3_vpx_lib.lib : srio_drv.obj (.text)
                  0c005160    00003920                                 : qmss_drv.obj (.text)
                  0c008a80    00003660                                 : ddr.obj (.text)
                  0c00c0e0    00003580                                 : cppi_drv.obj (.text)
                  0c00f660    000009a0     stk.ae66 : ipout.oe66 (.text:IPTxPacket)

.TI.bound:Srio_Recv_L3 
*          0    0c010000    000600c0     UNINITIALIZED
                  0c010000    000600c0     GlobalVar.obj (.TI.bound:Srio_Recv_L3)

.L3        0    0c0700c0    00083840     UNINITIALIZED
                  0c0700c0    00083840     GlobalVar.obj (.L3)

.text.2    0    0c0f3900    00040840     
                  0c0f3900    00001e40     ti.transport.ndk.nimu.ae66 : nimu_eth.obj (.text)
                  0c0f5740    00001a20     ti.platform.evm6678l.ae66 : platform.obj (.text)
                  0c0f7160    000019e0     stk.ae66 : tcpin.oe66 (.text:TcpInput)
                  0c0f8b40    00001240              : tcpout.oe66 (.text:TcpOutput)
                  0c0f9d80    00000d00     resourcemgr.obj (.text)
                  0c0faa80    00000b80     stk.ae66 : ipin.oe66 (.text:IPRxPacket)
                  0c0fb600    00000b40     ti.platform.evm6678l.ae66 : evm66x_nand.obj (.text)
                  0c0fc140    000009c0     c6678_2dsp_ddr3_vpx_lib.lib : srio_drv.obj (.text:SrioDevice_init)
                  0c0fcb00    000009a0     ti.platform.evm6678l.ae66 : evmc6678.obj (.text)
                  0c0fd4a0    000009a0     ti.targets.rts6000.ae66 : System.oe66 (.text:xdc_runtime_System_doPrint__I)
                  0c0fde40    00000840     dsplib.ae66 : DSPF_sp_ifftSPxSP.obj (.text:optimized)
                  0c0fe680    000007e0     ti.drv.qmss.ae66 : qmss_drv.oe66 (.text:Qmss_insertMemoryRegion)
                  0c0fee60    000007c0     stk.ae66 : sock.oe66 (.text:SockSet)
                  0c0ff620    000007c0     c6678_2dsp_ddr3_vpx_lib.lib : pll.obj (.text)
                  0c0ffde0    000007a0     ti.platform.evm6678l.ae66 : evmc66x_i2c_eeprom.obj (.text)
                  0c100580    00000780     sysbios.lib : BIOS.obj (.text:ti_sysbios_family_c64p_Exception_handler__I)
                  0c100d00    00000720     ti.drv.pa.ae66 : pa.oe66 (.text:Pa_addMac)
                  0c101420    000006e0     c6678_2dsp_ddr3_vpx_lib.lib : intc.obj (.text)
                  0c101b00    00000680     emac.obj (.text)
                  0c102180    00000660     ti.drv.cppi.ae66 : cppi_drv.oe66 (.text:Cppi_configureRxFlow)
                  0c1027e0    00000660     c6678_2dsp_ddr3_vpx_lib.lib : srio_drv.obj (.text:Srio_processDrvConfig)
                  0c102e40    00000660     sysbios.lib : BIOS.obj (.text:ti_sysbios_heaps_HeapMem_free__E)
                  0c1034a0    00000620                 : BIOS.obj (.text:ti_sysbios_heaps_HeapMem_alloc__E)
                  0c103ac0    000005c0     stk.ae66 : ipfrag.oe66 (.text:IPReasm)
                  0c104080    000005c0     rts6600_elf.lib : divd.obj (.text:__c6xabi_divd)
                  0c104640    000005c0     sysbios.lib : BIOS.obj (.text:ti_sysbios_timers_timer64_Timer_Module_startup__F)
                  0c104c00    000005a0     stk.ae66 : icmpin.oe66 (.text:ICMPInput)
                  0c1051a0    00000520              : sock.oe66 (.text:SockNew)
                  0c1056c0    00000500     sysbios.lib : BIOS.obj (.text:ti_sysbios_knl_Task_Instance_finalize__F)
                  0c105bc0    000004e0     SignalProcess.obj (.text)
                  0c1060a0    000004e0     stk.ae66 : udp.oe66 (.text:UdpInput)
                  0c106580    000004c0     ti.drv.cppi.ae66 : cppi_drv.oe66 (.text:Cppi_txChannelOpen)
                  0c106a40    000004a0     stk.ae66 : lliin.oe66 (.text:LLIRxPacket)
                  0c106ee0    000004a0              : sock.oe66 (.text:SockRecv)
                  0c107380    000004a0     c6678_2dsp_ddr3_vpx_lib.lib : srio_drv.obj (.text:Srio_processReceivedBD)
                  0c107820    00000480     miniPrintf.ae66 : miniPrintf.oe66 (.text:_parsearg)
                  0c107ca0    00000480     c6678_2dsp_ddr3_vpx_lib.lib : sem2.obj (.text)
                  0c108120    00000460                                 : other.obj (.text)
                  0c108580    00000460     ti.platform.evm6678l.ae66 : evmc66x_spi.obj (.text)
                  0c1089e0    00000440     ti.drv.cppi.ae66 : cppi_drv.oe66 (.text:Cppi_rxChannelOpen)
                  0c108e20    00000420     miniPrintf.ae66 : miniPrintf.oe66 (.text:_int2str)
                  0c109240    00000420     ti.drv.pa.ae66 : pa.oe66 (.text:pa_conv_routing_info)
                  0c109660    00000400     sysbios.lib : BIOS.obj (.text:ti_sysbios_knl_Semaphore_pend__E)
                  0c109a60    000003c0     ti.drv.cppi.ae66 : cppi_desc.oe66 (.text:Cppi_initDescriptor)
                  0c109e20    000003c0     stk.ae66 : sock.oe66 (.text:SockSend)
                  0c10a1e0    000003c0     c6678_2dsp_ddr3_vpx_lib.lib : srio_drv.obj (.text:Srio_sockSend_DIO)
                  0c10a5a0    000003c0     stk.ae66 : tcp.oe66 (.text:TcpTimeoutCheck)
                  0c10a960    000003c0     ti.csl.intc.ae66 : csl_intcHwControl.oe66 (.text:csl_section:intc:CSL_intcHwControl)
                  0c10ad20    000003c0     ti.platform.evm6678l.ae66 : evmc66x_nor.obj (.text)
                  0c10b0e0    000003c0     sysbios.lib : BIOS.obj (.text:ti_sysbios_knl_Task_Instance_init__F)
                  0c10b4a0    000003c0                 : BIOS.obj (.text:ti_sysbios_knl_Task_setPri__E)
                  0c10b860    000003a0     stk.ae66 : nimu.oe66 (.text:NIMUIoctl)
                  0c10bc00    000003a0              : route.oe66 (.text:RtCreate)
                  0c10bfa0    000003a0              : sb.oe66 (.text:SBRead)
                  0c10c340    000003a0     os.ae66 : mem.oe66 (.text:_mmCheck)
                  0c10c6e0    000003a0     rts6600_elf.lib : fputs.obj (.text:fputs)
                  0c10ca80    00000380     stk.ae66 : igmp.oe66 (.text:IGMPInput)
                  0c10ce00    00000380              : sock.oe66 (.text:SockConnect)
                  0c10d180    00000380              : sockint.oe66 (.text:SockNotify)
                  0c10d500    00000380     nettool_ipv4.ae66 : dhcppkt.oe66 (.text:dhcpPacketProcess)
                  0c10d880    00000380     ti.platform.evm6678l.ae66 : evmc66x_fpga.obj (.text)
                  0c10dc00    00000360     stk.ae66 : lliout.oe66 (.text:LLITxIpPacket)
                  0c10df60    00000360     emif16_fpga.obj (.text)
                  0c10e2c0    00000340     HostCmdResponse.obj (.text)
                  0c10e600    00000340     ti.drv.pa.ae66 : painit.oe66 (.text:Pa_create)
                  0c10e940    00000340     ProcInit.obj (.text)
                  0c10ec80    00000340     ti.drv.qmss.ae66 : qmss_drv.oe66 (.text:Qmss_init)
                  0c10efc0    00000340     c6678_2dsp_ddr3_vpx_lib.lib : srio_drv.obj (.text:Srio_sockOpen)
                  0c10f300    00000340     os.ae66 : mem.oe66 (.text:mmAlloc)
                  0c10f640    00000320     nettool_ipv4.ae66 : config.oe66 (.text:CfgAddEntry)
                  0c10f960    00000320     c6678_2dsp_ddr3_vpx_lib.lib : srio_drv.obj (.text:Srio_sockBind_DIO)
                  0c10fc80    00000320     ti.platform.evm6678l.ae66 : evmc6678_phy.obj (.text)
                  0c10ffa0    00000300     netctrl_min_ipv4.ae66 : netctrl.oe66 (.text:NetScheduler)
                  0c1102a0    00000300     Raco_Vec_C6678.lib : Raco_Vec_C6678_Get_Licence_II.obj (.text)
                  0c1105a0    00000300     nettool_ipv4.ae66 : inetaddr.oe66 (.text:inet_aton)
                  0c1108a0    00000300     platform_osal.obj (.text)
                  0c110ba0    00000300     sysbios.lib : BIOS.obj (.text:ti_sysbios_family_c64p_Hwi_dispatchC__I)
                  0c110ea0    000002e0     ti.drv.pa.ae66 : pa.oe66 (.text:Pa_forwardResult)
                  0c111180    000002e0     stk.ae66 : udp.oe66 (.text:UdpOutput)
                  0c111460    000002e0     sysbios.lib : BIOS.obj (.text:ti_sysbios_knl_Task_Module_startup__F)
                  0c111740    000002c0     stk.ae66 : bind.oe66 (.text:BindNew)
                  0c111a00    000002c0     rts6600_elf.lib : cos.obj (.text:cos)
                  0c111cc0    000002a0     stk.ae66 : node.oe66 (.text:NodeAdd)
                  0c111f60    000002a0              : rtable.oe66 (.text:RtFind)
                  0c112200    000002a0              : sock.oe66 (.text:SockClose)
                  0c1124a0    000002a0              : tcpprot.oe66 (.text:TcpPrSetOption)
                  0c112740    000002a0     sysbios.lib : BIOS.obj (.text:ti_sysbios_knl_Clock_workFunc__E)
                  0c1129e0    000002a0                 : BIOS.obj (.text:ti_sysbios_knl_Task_sleep__E)
                  0c112c80    00000280     nettool_ipv4.ae66 : dhcpmain.oe66 (.text:DHCPOpen)
                  0c112f00    00000280     stk.ae66 : icmp.oe66 (.text:ICMPGenPacket)
                  0c113180    00000280              : sockpcb.oe66 (.text:SockPcbResolve)
                  0c113400    00000280     c6678_2dsp_ddr3_vpx_lib.lib : srio_drv.obj (.text:Srio_start)
                  0c113680    00000280     sysbios.lib : BIOS.obj (.text:deviceConfig$44)
                  0c113900    00000280     rts6600_elf.lib : sin.obj (.text:sin)
                  0c113b80    00000280     sysbios.lib : BIOS.obj (.text:ti_sysbios_knl_Clock_Instance_init__F)
                  0c113e00    00000280                 : BIOS.obj (.text:ti_sysbios_knl_Task_exit__E)
                  0c114080    00000280     ti.targets.rts6000.ae66 : Core-mem.oe66 (.text:xdc_runtime_Core_createObject__I)
                  0c114300    00000280                             : Error.oe66 (.text:xdc_runtime_Error_raiseX__F)
                  0c114580    00000260     stk.ae66 : rawethsock.oe66 (.text:RawEthSockSet)
                  0c1147e0    00000260              : sb.oe66 (.text:SBWrite)
                  0c114a40    00000260              : sockpcb.oe66 (.text:SockPcbBind)
                  0c114ca0    00000260     c6678_2dsp_ddr3_vpx_lib.lib : srio_drv.obj (.text:Srio_sockBind_TYPE11)
                  0c114f00    00000260     ti.targets.rts6000.ae66 : Startup.oe66 (.text:xdc_runtime_Startup_startMods__I)
                  0c115160    00000260     app_pe66.oe66 (.text:xdc_runtime_System_printfExtend__I)
                  0c1153c0    00000240     ti.drv.cppi.ae66 : cppi_drv.oe66 (.text:Cppi_open)
                  0c115600    00000240     ti.drv.pa.ae66 : pa.oe66 (.text:Pa_resetControl)
                  0c115840    00000240     stk.ae66 : pipe.oe66 (.text:PipeRecv)
                  0c115a80    00000240     Raco_Vec_C6678.lib : Raco_Vec_C6678_Get_Licence_II_ASM_Master.obj (.text)
                  0c115cc0    00000240     stk.ae66 : raw.oe66 (.text:RawInput)
                  0c115f00    00000240     c6678_2dsp_ddr3_vpx_lib.lib : srio_drv.obj (.text:Srio_init)
                  0c116140    00000240                                 : srio_drv.obj (.text:Srio_sockBind_TYPE9)
                  0c116380    00000240     rts6600_elf.lib : imath64.obj (.text:__c6xabi_divull)
                  0c1165c0    00000240     nettool_ipv4.ae66 : dhcpsm.oe66 (.text:dhcpIPAdd)
                  0c116800    00000240                       : dhcpsm.oe66 (.text:dhcpState)
                  0c116a40    00000240     app_pe66.oe66 (.text:ti_ndk_config_Global_stackThread)
                  0c116c80    00000240     sysbios.lib : BIOS.obj (.text:ti_sysbios_family_c64p_Exception_internalHandler__I)
                  0c116ec0    00000240                 : BIOS.obj (.text:ti_sysbios_knl_Semaphore_post__E)
                  0c117100    00000240     ti.targets.rts6000.ae66 : LoggerBuf.oe66 (.text:xdc_runtime_LoggerBuf_write8__F)
                  0c117340    00000220     stk.ae66 : igmp.oe66 (.text:IGMPJoinHostGroup)
                  0c117560    00000220              : rawethsock.oe66 (.text:RawEthSockNew)
                  0c117780    00000220              : sockpcb.oe66 (.text:SockPcbFind)
                  0c1179a0    00000220     ti.csl.intc.ae66 : csl_intcOpen.oe66 (.text:csl_section:intc:CSL_intcOpen)
                  0c117bc0    00000220                      : _csl_intcCombEventDispatcher.oe66 (.text:csl_section:intc:_CSL_intcEvent0Dispatcher)
                  0c117de0    00000220                      : _csl_intcCombEventDispatcher.oe66 (.text:csl_section:intc:_CSL_intcEvent1Dispatcher)
                  0c118000    00000220                      : _csl_intcCombEventDispatcher.oe66 (.text:csl_section:intc:_CSL_intcEvent2Dispatcher)
                  0c118220    00000220                      : _csl_intcCombEventDispatcher.oe66 (.text:csl_section:intc:_CSL_intcEvent3Dispatcher)
                  0c118440    00000220     nettool_ipv4.ae66 : dhcppkt.oe66 (.text:dhcpVerifyMessage)
                  0c118660    00000220     sysbios.lib : BIOS.obj (.text:ti_sysbios_knl_Swi_run__I)
                  0c118880    00000220                 : BIOS.obj (.text:ti_sysbios_knl_Task_schedule__I)
                  0c118aa0    00000220                 : BIOS.obj (.text:ti_sysbios_knl_Task_startup__E)
                  0c118cc0    00000200     DSPInit.obj (.text)
                  0c118ec0    00000200     stk.ae66 : nimu.oe66 (.text:NIMUReceivePacket)
                  0c1190c0    00000200     ti.drv.qmss.ae66 : qmss_drv.oe66 (.text:Qmss_internalQueueOpen)
                  0c1192c0    00000200                      : qmss_acc.oe66 (.text:Qmss_programAccumulator)
                  0c1194c0    00000200     stk.ae66 : rtc.oe66 (.text:RTCReport)
                  0c1196c0    00000200     c6678_2dsp_ddr3_vpx_lib.lib : srio_drv.obj (.text:Srio_rxCompletionIsr)
                  0c1198c0    00000200     sysbios.lib : c64p_Hwi_disp_always.obj (.text:_ti_sysbios_family_c64p_Hwi_dispatchAlways)
                  0c119ac0    00000200                 : BIOS.obj (.text:block$56)
                  0c119cc0    00000200     ti.drv.cppi.ae66 : cppi_heap.oe66 (.text:cppi_internal_heap_add)
                  0c119ec0    00000200     rts6600_elf.lib : setvbuf.obj (.text:setvbuf)
                  0c11a0c0    00000200     sysbios.lib : BIOS.obj (.text:ti_sysbios_io_DEV_Module_startup__F)
                  0c11a2c0    000001e0     stk.ae66 : igmp.oe66 (.text:IGMPSendReply)
                  0c11a4a0    000001e0              : tcpout.oe66 (.text:TcpGenPacket)
                  0c11a680    000001e0     miniPrintf.ae66 : miniPrintf.oe66 (.text:_str2str)
                  0c11a860    000001e0     ti.csl.intc.ae66 : _csl_intcDispatcher.oe66 (.text:csl_section:intc:_CSL_intcDispatcher)
                  0c11aa40    000001e0     nettool_ipv4.ae66 : dhcpsock.oe66 (.text:dhcpSocketOpen)
                  0c11ac20    000001e0     sysbios.lib : BIOS.obj (.text:ti_sysbios_knl_Task_postInit__I)
                  0c11ae00    000001e0                 : BIOS.obj (.text:ti_sysbios_timers_timer64_Timer_getFreq__E)
                  0c11afe0    000001c0     nettool_ipv4.ae66 : config.oe66 (.text:CfgExecute)
                  0c11b1a0    000001c0     ti.drv.cppi.ae66 : cppi_drv.oe66 (.text:Cppi_channelClose)
                  0c11b360    000001c0                      : cppi_drv.oe66 (.text:Cppi_initCfg)
                  0c11b520    000001c0     stk.ae66 : ip.oe66 (.text:IPGetRoute)
                  0c11b6e0    000001c0              : lliout.oe66 (.text:LLIGenArpPacket)
                  0c11b8a0    000001c0     ti.drv.qmss.ae66 : qmss_drv.oe66 (.text:Qmss_internaldownloadFirmware)
                  0c11ba60    000001c0     netctrl_min_ipv4.ae66 : netsrv.oe66 (.text:SPIpNet)
                  0c11bc20    000001c0     c6678_2dsp_ddr3_vpx_lib.lib : srio_drv.obj (.text:Srio_processAppConfig)
                  0c11bde0    000001c0     stk.ae66 : tcptime.oe66 (.text:TcpTimeoutRexmt)
                  0c11bfa0    000001c0              : lli.oe66 (.text:_LLITimeoutCheck)
                  0c11c160    000001c0     miniPrintf.ae66 : miniPrintf.oe66 (.text:_printf)
                  0c11c320    000001c0     nettool_ipv4.ae66 : dhcpbild.oe66 (.text:dhcpBuildHeader)
                  0c11c4e0    000001c0     ti.platform.evm6678l.ae66 : evmc66x_uart.obj (.text)
                  0c11c6a0    000001c0     sysbios.lib : BIOS.obj (.text:ti_sysbios_knl_Task_checkStacks__E)
                  0c11c860    000001c0                 : BIOS.obj (.text:ti_sysbios_timers_timer64_Timer_setPeriodMicroSecs__E)
                  0c11ca20    000001c0     utils_syn.obj (.text)
                  0c11cbe0    000001a0     nettool_ipv4.ae66 : config.oe66 (.text:CfgRemoveEntry)
                  0c11cd80    000001a0     rts6600_elf.lib : trgdrv.obj (.text:HOSTrename)
                  0c11cf20    000001a0     stk.ae66 : icmpin.oe66 (.text:ICMPRevSrcRoute)
                  0c11d0c0    000001a0     netctrl_min_ipv4.ae66 : netctrl.oe66 (.text:NC_NetStart)
                  0c11d260    000001a0     stk.ae66 : node.oe66 (.text:NodeTreeFree)
                  0c11d400    000001a0     ti.drv.pa.ae66 : pa.oe66 (.text:Pa_downloadImage)
                  0c11d5a0    000001a0     stk.ae66 : sockint.oe66 (.text:SockCreatePacket)
                  0c11d740    000001a0     nettool_ipv4.ae66 : dhcpsm.oe66 (.text:StateRenewRebind)
                  0c11d8e0    000001a0                       : dhcptags.oe66 (.text:dhcpBuildOptions)
                  0c11da80    000001a0     sysbios.lib : BIOS.obj (.text:ti_sysbios_gates_GateMutex_enter__E)
                  0c11dc20    000001a0                 : BIOS.obj (.text:ti_sysbios_timers_timer64_Timer_start__E)
                  0c11ddc0    000001a0     ti.targets.rts6000.ae66 : LoggerBuf.oe66 (.text:xdc_runtime_LoggerBuf_write4__F)
                  0c11df60    00000180     stk.ae66 : igmp.oe66 (.text:IGMPMsg)
                  0c11e0e0    00000180              : nimu.oe66 (.text:NIMURegister)
                  0c11e260    00000180     netctrl_min_ipv4.ae66 : netsrv.oe66 (.text:ServiceScan)
                  0c11e3e0    00000180     c6678_2dsp_ddr3_vpx_lib.lib : srio_drv.obj (.text:Srio_sockClose_DIO)
                  0c11e560    00000180                                 : srio_drv.obj (.text:Srio_validateBindingId)
                  0c11e6e0    00000180                                 : srio_drv.obj (.text:Srio_validateDIOBindingId)
                  0c11e860    00000180     nettool_ipv4.ae66 : dhcpsm.oe66 (.text:StateBound)
                  0c11e9e0    00000180     rts6600_elf.lib : copy_decompress_rle.obj (.text:__TI_decompress_rle_core)
                  0c11eb60    00000180     nettool_ipv4.ae66 : dhcpbild.oe66 (.text:dhcpBuildRequest)
                  0c11ece0    00000180     stk.ae66 : fileuser.oe66 (.text:fdClose)
                  0c11ee60    00000180     os.ae66 : task.oe66 (.text:llEnter)
                  0c11efe0    00000180     sysbios.lib : c64p_Exception_asm.obj (.text)
                  0c11f160    00000180                 : BIOS.obj (.text:ti_sysbios_heaps_HeapMem_Instance_init__F)
                  0c11f2e0    00000180                 : BIOS.obj (.text:ti_sysbios_knl_Swi_schedule__I)
                  0c11f460    00000180                 : BIOS.obj (.text:ti_sysbios_knl_Task_unblockI__E)
                  0c11f5e0    00000180     ti.targets.rts6000.ae66 : Text.oe66 (.text:xdc_runtime_Text_putSite__F)
                  0c11f760    00000160     nettool_ipv4.ae66 : config.oe66 (.text:CfgGetEntry)
                  0c11f8c0    00000160                       : config.oe66 (.text:CfgGetNextEntry)
                  0c11fa20    00000160     os.ae66 : ossys.oe66 (.text:DbgPrintf)
                  0c11fb80    00000160     stk.ae66 : igmp.oe66 (.text:IGMPDoMCast)
                  0c11fce0    00000160              : nimu.oe66 (.text:NIMUIoctlSpecialCmd)
                  0c11fe40    00000160              : pipe.oe66 (.text:PipeSend)
                  0c11ffa0    00000160              : raw.oe66 (.text:RawOutput)
                  0c120100    00000160              : rtable.oe66 (.text:RtTimeoutCheck)
                  0c120260    00000160              : rtable.oe66 (.text:RtWalkNext)
                  0c1203c0    00000160     netctrl_min_ipv4.ae66 : netsrv.oe66 (.text:SPRoute)
                  0c120520    00000160     stk.ae66 : sockpcb.oe66 (.text:SockPcbConnect)
                  0c120680    00000160     nettool_ipv4.ae66 : dhcpsm.oe66 (.text:StateRequesting)
                  0c1207e0    00000160     stk.ae66 : tcptime.oe66 (.text:TcpTimeoutKeep)
                  0c120940    00000160     hookfunc.obj (.text)
                  0c120aa0    00000140     ti.csl.ae66 : csl_chip.oe66 (.text:CSL_chipReadReg)
                  0c120be0    00000140     stk.ae66 : icmp.oe66 (.text:ICMPSendRtAdv)
                  0c120d20    00000140              : igmp.oe66 (.text:IGMPJoin)
                  0c120e60    00000140              : lli.oe66 (.text:LLINew)
                  0c120fa0    00000140              : node.oe66 (.text:NodeFind)
                  0c1210e0    00000140              : node.oe66 (.text:NodeWalk)
                  0c121220    00000140              : pbm.oe66 (.text:PBM_alloc)
                  0c121360    00000140              : pbm.oe66 (.text:PBM_free)
                  0c1214a0    00000140              : rtable.oe66 (.text:RtFlush)
                  0c1215e0    00000140              : sock.oe66 (.text:SockAccept)
                  0c121720    00000140              : sock.oe66 (.text:SockListen)
                  0c121860    00000140              : sockpcb.oe66 (.text:SockPcbCtlError)
                  0c1219a0    00000140     c6678_2dsp_ddr3_vpx_lib.lib : srio_drv.obj (.text:Srio_getSockOpt)
                  0c121ae0    00000140                                 : srio_drv.obj (.text:Srio_sockSend_TYPE11)
                  0c121c20    00000140                                 : srio_drv.obj (.text:Srio_sockSend_TYPE9)
                  0c121d60    00000140     boot.ae66 : autoinit.oe66 (.text:_auto_init_elf)
                  0c121ea0    00000140     ti.csl.intc.ae66 : csl_intcInit.oe66 (.text:csl_section:intc:CSL_intcInit)
                  0c121fe0    00000140                      : _csl_intcIntrEnDisRes.oe66 (.text:csl_section:intc)
                  0c122120    00000140     nettool_ipv4.ae66 : dhcptags.oe66 (.text:dhcpDecodeType)
                  0c122260    00000140     rts6600_elf.lib : lowlev.obj (.text:getdevice)
                  0c1223a0    00000140     os.ae66 : mem.oe66 (.text:mmCopy)
                  0c1224e0    00000140     stk.ae66 : socket.oe66 (.text:sendto)
                  0c122620    00000140     app_pe66.oe66 (.text:ti_ndk_config_ip_init)
                  0c122760    00000140     sysbios.lib : BIOS.obj (.text:ti_sysbios_family_c64p_Hwi_Module_startup__F)
                  0c1228a0    00000140                 : BIOS.obj (.text:ti_sysbios_family_c66_Cache_Module_startup__F)
                  0c1229e0    00000140                 : BIOS.obj (.text:ti_sysbios_knl_Clock_Instance_finalize__F)
                  0c122b20    00000140                 : BIOS.obj (.text:ti_sysbios_knl_Semaphore_Instance_init__F)
                  0c122c60    00000140                 : BIOS.obj (.text:ti_sysbios_knl_Swi_post__E)
                  0c122da0    00000140                 : BIOS.obj (.text:ti_sysbios_knl_Task_blockI__E)
                  0c122ee0    00000120     stk.ae66 : bind.oe66 (.text:BindFree)
                  0c123000    00000120     nettool_ipv4.ae66 : config.oe66 (.text:CfgFree)
                  0c123120    00000120                       : daemon.oe66 (.text:DaemonFree)
                  0c123240    00000120     stk.ae66 : file.oe66 (.text:FdWaitEvent)
                  0c123360    00000120              : igmp.oe66 (.text:IGMPLeaveHostGroup)
                  0c123480    00000120              : ip.oe66 (.text:IPMsg)
                  0c1235a0    00000120              : ipin.oe66 (.text:IPRouteIP)
                  0c1236c0    00000120     netctrl_min_ipv4.ae66 : netctrl.oe66 (.text:NC_SystemOpen)
                  0c1237e0    00000120     stk.ae66 : nimu.oe66 (.text:NIMUAddEthernetHeader)
                  0c123900    00000120     NetworkRecv.obj (.text)
                  0c123a20    00000120     ti.drv.qmss.ae66 : qmss_acc.oe66 (.text:Qmss_disableAccumulator)
                  0c123b40    00000120     Raco_Vec_C6678.lib : Raco_Vec_C6678_Get_Licence_I.obj (.text)
                  0c123c60    00000120     stk.ae66 : raweth.oe66 (.text:RawEthRxPacket)
                  0c123d80    00000120              : raweth.oe66 (.text:RawEthTxPacket)
                  0c123ea0    00000120              : sb.oe66 (.text:SBNew)
                  0c123fc0    00000120     netctrl_min_ipv4.ae66 : netsrv.oe66 (.text:SPConfig)
                  0c1240e0    00000120                           : netsrv.oe66 (.text:SPService)
                  0c124200    00000120     stk.ae66 : sockpcb.oe66 (.text:SockPcbFindRaw)
                  0c124320    00000120              : sock.oe66 (.text:SockShutdown)
                  0c124440    00000120     c6678_2dsp_ddr3_vpx_lib.lib : srio_drv.obj (.text:Srio_sockClose_TYPE11)
                  0c124560    00000120                                 : srio_drv.obj (.text:Srio_sockClose_TYPE9)
                  0c124680    00000120                                 : srio_drv.obj (.text:Srio_sockRecv)
                  0c1247a0    00000120     stk.ae66 : tcpprot.oe66 (.text:TcpPrAttach)
                  0c1248c0    00000120              : rtable.oe66 (.text:_RtNodeInsert)
                  0c1249e0    00000120     rts6600_elf.lib : fclose.obj (.text:_closefile)
                  0c124b00    00000120     os.ae66 : mem.oe66 (.text:_mmInit)
                  0c124c20    00000120     stk.ae66 : socket.oe66 (.text:accept)
                  0c124d40    00000120              : fileuser.oe66 (.text:fdOpenSession)
                  0c124e60    00000120     rts6600_elf.lib : fseek.obj (.text:fseek)
                  0c124f80    00000120     stk.ae66 : socket.oe66 (.text:recv)
                  0c1250a0    00000120     sysbios.lib : BIOS.obj (.text:rtsUnlock$0)
                  0c1251c0    00000120     stk.ae66 : socket.oe66 (.text:send)
                  0c1252e0    00000120              : socket.oe66 (.text:setsockopt)
                  0c125400    00000120     sysbios.lib : BIOS.obj (.text:ti_sysbios_knl_Mailbox_Module_startup__F)
                  0c125520    00000120     ti.targets.rts6000.ae66 : LoggerBuf.oe66 (.text:xdc_runtime_LoggerBuf_setFilterLevel__F)
                  0c125640    00000120                             : Text.oe66 (.text:xdc_runtime_Text_putLab__F)
                  0c125760    00000100     nettool_ipv4.ae66 : config.oe66 (.text:CfgNew)
                  0c125860    00000100                       : config.oe66 (.text:CfgSetExecuteOrder)
                  0c125960    00000100     stk.ae66 : exec.oe66 (.text:ExecOpen)
                  0c125a60    00000100     rts6600_elf.lib : trgdrv.obj (.text:HOSTlseek)
                  0c125b60    00000100     stk.ae66 : igmp.oe66 (.text:IGMPTimer)
                  0c125c60    00000100              : rtc.oe66 (.text:RTCMsg)
                  0c125d60    00000100              : route.oe66 (.text:RtRedirect)
                  0c125e60    00000100     netctrl_min_ipv4.ae66 : netsrv.oe66 (.text:ServiceSpawn)
                  0c125f60    00000100     stk.ae66 : sockint.oe66 (.text:SockValidateRoute)
                  0c126060    00000100     nettool_ipv4.ae66 : dhcpsm.oe66 (.text:StateSelecting)
                  0c126160    00000100     stk.ae66 : tcpprot.oe66 (.text:TcpPrInherit)
                  0c126260    00000100              : tcptime.oe66 (.text:TcpXmitTimer)
                  0c126360    00000100              : rtable.oe66 (.text:_RtNodeRemove)
                  0c126460    00000100     rts6600_elf.lib : _io_perm.obj (.text:_wrt_ok)
                  0c126560    00000100     sysbios.lib : BIOS.obj (.text:initDevice$44)
                  0c126660    00000100     os.ae66 : mem.oe66 (.text:mmFree)
                  0c126760    00000100     miniPrintf.ae66 : miniPrintf.oe66 (.text:printstr)
                  0c126860    00000100     stk.ae66 : socket.oe66 (.text:socket)
                  0c126960    00000100     sysbios.lib : BIOS.obj (.text:ti_sysbios_family_c64p_EventCombiner_dispatch__F)
                  0c126a60    00000100                 : BIOS.obj (.text:ti_sysbios_knl_Clock_startI__E)
                  0c126b60    00000100                 : BIOS.obj (.text:ti_sysbios_knl_Mailbox_pend__E)
                  0c126c60    00000100                 : BIOS.obj (.text:ti_sysbios_knl_Mailbox_post__E)
                  0c126d60    00000100                 : BIOS.obj (.text:ti_sysbios_knl_Swi_restoreHwi__E)
                  0c126e60    00000100     stk.ae66 : lliin.oe66 (.text:updateRtTable)
                  0c126f60    00000100     ti.targets.rts6000.ae66 : Core-mem.oe66 (.text:xdc_runtime_Core_deleteObject__I)
                  0c127060    00000100                             : LoggerBuf.oe66 (.text:xdc_runtime_LoggerBuf_getFilterLevel__F)
                  0c127160    00000100                             : Startup.oe66 (.text:xdc_runtime_Startup_exec__F)
                  0c127260    00000100                             : Text.oe66 (.text:xdc_runtime_Text_putMod__F)
                  0c127360    00000100                             : Text.oe66 (.text:xdc_runtime_Text_visitRope2__I)
                  0c127460    000000e0     nettool_ipv4.ae66 : config.oe66 (.text:CfgGetEntryCnt)
                  0c127540    000000e0                       : dhcpmain.oe66 (.text:DHCPClose)
                  0c127620    000000e0     rts6600_elf.lib : trgdrv.obj (.text:HOSTopen)
                  0c127700    000000e0     stk.ae66 : igmp.oe66 (.text:IGMPLeave)
                  0c1277e0    000000e0              : nimu.oe66 (.text:NIMUAllocateIndex)
                  0c1278c0    000000e0              : nimu.oe66 (.text:NIMUAllocateName)
                  0c1279a0    000000e0              : node.oe66 (.text:NodeDeRef)
                  0c127a80    000000e0              : node.oe66 (.text:NodeNew)
                  0c127b60    000000e0              : node.oe66 (.text:NodeTreeNew)
                  0c127c40    000000e0              : pbm.oe66 (.text:PBMQ_enq)
                  0c127d20    000000e0     Raco_Vec_C6678.lib : Raco_Vec_C6678_Get_Licence_II_ASM_Slave.obj (.text)
                  0c127e00    000000e0     stk.ae66 : rawethsock.oe66 (.text:RawEthSockNotify)
                  0c127ee0    000000e0              : rawethsock_pcb.oe66 (.text:RawEthSockPcbAttach)
                  0c127fc0    000000e0              : rawethsock.oe66 (.text:RawEthSockSend)
                  0c1280a0    000000e0              : route.oe66 (.text:RtDeRef)
                  0c128180    000000e0              : route.oe66 (.text:RtRemove)
                  0c128260    000000e0              : sb.oe66 (.text:SBSetMax)
                  0c128340    000000e0     netctrl_min_ipv4.ae66 : netsrv.oe66 (.text:ServiceKill)
                  0c128420    000000e0     stk.ae66 : sock.oe66 (.text:SockDisconnect)
                  0c128500    000000e0              : sockint.oe66 (.text:SockSpawnAbort)
                  0c1285e0    000000e0     c6678_2dsp_ddr3_vpx_lib.lib : srio_drv.obj (.text:Srio_initSockData)
                  0c1286c0    000000e0     stk.ae66 : tcpprot.oe66 (.text:TcpPrDetach)
                  0c1287a0    000000e0              : tcpprot.oe66 (.text:TcpPrDisconnect)
                  0c128880    000000e0              : tcpprot.oe66 (.text:TcpValidateMetrics)
                  0c128960    000000e0              : timer.oe66 (.text:TimerListInsert)
                  0c128a40    000000e0              : udp.oe66 (.text:UdpChecksum)
                  0c128b20    000000e0              : vlan.oe66 (.text:VLANDeinit)
                  0c128c00    000000e0              : vlan.oe66 (.text:VLANReceivePacket)
                  0c128ce0    000000e0     nettool_ipv4.ae66 : config.oe66 (.text:_CfgEntryScan)
                  0c128dc0    000000e0     stk.ae66 : lli.oe66 (.text:_LLIExpListInsert)
                  0c128ea0    000000e0              : rtable.oe66 (.text:_RtExpListInsert)
                  0c128f80    000000e0              : socket.oe66 (.text:bind)
                  0c129060    000000e0     c6678_2dsp_ddr3_vpx_lib.lib : timecounter.obj (.text)
                  0c129140    000000e0     rts6600_elf.lib : lowlev.obj (.text:close)
                  0c129220    000000e0                     : copy_zero_init.obj (.text:decompress:ZI:__TI_zero_init)
                  0c129300    000000e0     stk.ae66 : file.oe66 (.text:fdint_lockfd)
                  0c1293e0    000000e0              : file.oe66 (.text:fdint_unlockfd)
                  0c1294c0    000000e0     os.ae66 : task.oe66 (.text:llExit)
                  0c1295a0    000000e0     rts6600_elf.lib : memset.obj (.text:memset)
                  0c129680    000000e0     os.ae66 : mem.oe66 (.text:mmBulkAlloc)
                  0c129760    000000e0     app_pe66.oe66 (.text:ti_ndk_config_Global_NetworkIPAddr)
                  0c129840    000000e0     sysbios.lib : BIOS.obj (.text:ti_sysbios_knl_Clock_start__E)
                  0c129920    000000e0                 : BIOS.obj (.text:ti_sysbios_timers_timer64_Timer_startup__E)
                  0c129a00    000000e0     ti.targets.rts6000.ae66 : Error.oe66 (.text:xdc_runtime_Error_print__F)
                  0c129ae0    000000e0                             : Memory.oe66 (.text:xdc_runtime_Memory_alloc__F)
                  0c129bc0    000000c0     rts6600_elf.lib : trgdrv.obj (.text:HOSTread)
                  0c129c80    000000c0                     : trgdrv.obj (.text:HOSTunlink)
                  0c129d40    000000c0                     : trgdrv.obj (.text:HOSTwrite)
                  0c129e00    000000c0     stk.ae66 : lli.oe66 (.text:LLIGetValidTime)
                  0c129ec0    000000c0              : lli.oe66 (.text:LLIMsg)
                  0c129f80    000000c0              : nimu.oe66 (.text:NIMUFindByName)
                  0c12a040    000000c0     netctrl_min_ipv4.ae66 : netsrv.oe66 (.text:NS_BootTask)
                  0c12a100    000000c0     stk.ae66 : node.oe66 (.text:NodeUpdatePL)
                  0c12a1c0    000000c0     nettool_ipv4.ae66 : ipaddr.oe66 (.text:NtIfIdx2Ip)
                  0c12a280    000000c0     stk.ae66 : pbm.oe66 (.text:PBM_copy)
                  0c12a340    000000c0     ti.drv.qmss.ae66 : qmss_drv.oe66 (.text:Qmss_setEoiVector)
                  0c12a400    000000c0     stk.ae66 : rtable.oe66 (.text:RtWalkBegin)
                  0c12a4c0    000000c0              : sb.oe66 (.text:SBFlush)
                  0c12a580    000000c0              : sock.oe66 (.text:SockIntAbort)
                  0c12a640    000000c0              : sockpcb.oe66 (.text:SockPcbRtChange)
                  0c12a700    000000c0     c6678_2dsp_ddr3_vpx_lib.lib : srio_drv.obj (.text:Srio_Bind_11)
                  0c12a7c0    000000c0                                 : srio_drv.obj (.text:Srio_Bind_9)
                  0c12a880    000000c0                                 : srio_drv.obj (.text:Srio_getDescSize)
                  0c12a940    000000c0     os.ae66 : task.oe66 (.text:TaskGetEnv)
                  0c12aa00    000000c0     stk.ae66 : tcp.oe66 (.text:TcpChecksum)
                  0c12aac0    000000c0              : tcpprot.oe66 (.text:TcpClose)
                  0c12ab80    000000c0              : tcptime.oe66 (.text:TcpTimeoutSackRexmt)
                  0c12ac40    000000c0     rts6600_elf.lib : dtor_list.obj (.text:_Z11__TI_atexitPFYvPvES_S_)
                  0c12ad00    000000c0                     : dtor_list.obj (.text:__cxa_finalize)
                  0c12adc0    000000c0                     : divu.obj (.text:__divu)
                  0c12ae80    000000c0                     : remi.obj (.text:__remi)
                  0c12af40    000000c0                     : fflush.obj (.text:_doflush)
                  0c12b000    000000c0     ti.drv.cppi.ae66 : cppi_listlib.oe66 (.text:cppi_list_remove_node)
                  0c12b0c0    000000c0     ti.csl.intc.ae66 : csl_intcPlugEventHandler.oe66 (.text:csl_section:intc:CSL_intcPlugEventHandler)
                  0c12b180    000000c0     nettool_ipv4.ae66 : dhcptags.oe66 (.text:dhcpOptionsClear)
                  0c12b240    000000c0     rts6600_elf.lib : exit.obj (.text:exit)
                  0c12b300    000000c0     os.ae66 : mem.oe66 (.text:mmZeroInit)
                  0c12b3c0    000000c0     sysbios.lib : BIOS.obj (.text:ti_sysbios_BIOS_errorRaiseHook__I)
                  0c12b480    000000c0                 : BIOS.obj (.text:ti_sysbios_heaps_HeapMem_getStats__E)
                  0c12b540    000000c0                 : BIOS.obj (.text:ti_sysbios_knl_Clock_logTick__E)
                  0c12b600    000000c0     app_pe66.oe66 (.text:ti_sysbios_knl_Task_Object__create__S)
                  0c12b6c0    000000c0     sysbios.lib : BIOS.obj (.text:ti_sysbios_timers_timer64_Timer_stop__E)
                  0c12b780    000000c0     ti.targets.rts6000.ae66 : LoggerBuf.oe66 (.text:xdc_runtime_LoggerBuf_Instance_init__F)
                  0c12b840    000000c0     app_pe66.oe66 (.text:xdc_runtime_LoggerBuf_Object__create__S)
                  0c12b900    000000c0     ti.targets.rts6000.ae66 : System.oe66 (.text:xdc_runtime_System_formatNum__I)
                  0c12b9c0    000000a0     nettool_ipv4.ae66 : config.oe66 (.text:CfgEntryDeRef)
                  0c12ba60    000000a0                       : config.oe66 (.text:CfgEntryGetData)
                  0c12bb00    000000a0                       : config.oe66 (.text:CfgGetImmediate)
                  0c12bba0    000000a0     ti.drv.cppi.ae66 : cppi_drv.oe66 (.text:Cppi_channelEnable)
                  0c12bc40    000000a0     stk.ae66 : file.oe66 (.text:FdSignalEvent)
                  0c12bce0    000000a0     rts6600_elf.lib : trgdrv.obj (.text:HOSTclose)
                  0c12bd80    000000a0     stk.ae66 : ipfrag.oe66 (.text:IPReasmFree)
                  0c12be20    000000a0              : ipfrag.oe66 (.text:IPReasmTimeout)
                  0c12bec0    000000a0              : lliin.oe66 (.text:LLIValidateRoute)
                  0c12bf60    000000a0              : nimu.oe66 (.text:NIMUShutdown)
                  0c12c000    000000a0              : nimu.oe66 (.text:NIMUUnregister)
                  0c12c0a0    000000a0     nettool_ipv4.ae66 : ipaddr.oe66 (.text:NtAddNetwork)
                  0c12c140    000000a0     stk.ae66 : pbm.oe66 (.text:PBM_open)
                  0c12c1e0    000000a0     ti.drv.qmss.ae66 : qmss_drv.oe66 (.text:Qmss_queueClose)
                  0c12c280    000000a0                      : qmss_drv.oe66 (.text:Qmss_startCfg)
                  0c12c320    000000a0     stk.ae66 : rtable.oe66 (.text:RouteMsg)
                  0c12c3c0    000000a0              : route.oe66 (.text:RtNew)
                  0c12c460    000000a0              : sb.oe66 (.text:SBFree)
                  0c12c500    000000a0     os.ae66 : semaphore.oe66 (.text:SemCreate)
                  0c12c5a0    000000a0     stk.ae66 : sock.oe66 (.text:SockBind)
                  0c12c640    000000a0              : sockpcb.oe66 (.text:SockCleanPcb)
                  0c12c6e0    000000a0              : sockpcb.oe66 (.text:SockPcbResolveChain)
                  0c12c780    000000a0     os.ae66 : task.oe66 (.text:TaskCreate)
                  0c12c820    000000a0     stk.ae66 : tcpprot.oe66 (.text:TcpDrop)
                  0c12c8c0    000000a0              : tcpprot.oe66 (.text:TcpPrCtlError)
                  0c12c960    000000a0              : tcpprot.oe66 (.text:TcpPrSend)
                  0c12ca00    000000a0              : tcpprot.oe66 (.text:TcpPrSendOOB)
                  0c12caa0    000000a0              : timer.oe66 (.text:TimerNew)
                  0c12cb40    000000a0     nettool_ipv4.ae66 : config.oe66 (.text:_CfgRelease)
                  0c12cbe0    000000a0     stk.ae66 : lli.oe66 (.text:_LLITimeoutFlush)
                  0c12cc80    000000a0     rts6600_elf.lib : round.obj (.text:__c6xabi_nround)
                  0c12cd20    000000a0                     : remu.obj (.text:__remu)
                  0c12cdc0    000000a0     boot.ae66 : boot.oe66 (.text:_c_int00)
                  0c12ce60    000000a0     rts6600_elf.lib : fopen.obj (.text:_cleanup)
                  0c12cf00    000000a0     ti.drv.cppi.ae66 : cppi_heap.oe66 (.text:cppi_internal_heap_malloc)
                  0c12cfa0    000000a0                      : cppi_listlib.oe66 (.text:cppi_list_cat)
                  0c12d040    000000a0     ti.csl.intc.ae66 : csl_intcClose.oe66 (.text:csl_section:intc:CSL_intcClose)
                  0c12d0e0    000000a0     nettool_ipv4.ae66 : dhcpbild.oe66 (.text:dhcpBuildDecline)
                  0c12d180    000000a0                       : dhcpsm.oe66 (.text:dhcpIPRemove)
                  0c12d220    000000a0     stk.ae66 : fileuser.oe66 (.text:fdCloseSession)
                  0c12d2c0    000000a0     rts6600_elf.lib : lowlev.obj (.text:finddevice)
                  0c12d360    000000a0     stk.ae66 : socket.oe66 (.text:listen)
                  0c12d400    000000a0     hal_timer_bios.ae66 : lltimer.oe66 (.text:llTimerTick)
                  0c12d4a0    000000a0     rts6600_elf.lib : lowlev.obj (.text:lseek)
                  0c12d540    000000a0     main.obj (.text)
                  0c12d5e0    000000a0     rts6600_elf.lib : memcpy64.obj (.text:memcpy)
                  0c12d680    000000a0     os.ae66 : mem.oe66 (.text:mmBulkFree)
                  0c12d720    000000a0             : mem.oe66 (.text:mmInitPage)
                  0c12d7c0    000000a0     rts6600_elf.lib : modf.obj (.text:modf)
                  0c12d860    000000a0     ti.drv.pa.ae66 : pa.oe66 (.text:pa_format_fcmd_header)
                  0c12d900    000000a0                    : pa.oe66 (.text:pa_pdsp_run)
                  0c12d9a0    000000a0     sysbios.lib : BIOS.obj (.text:ti_sysbios_heaps_HeapMem_init__I)
                  0c12da40    000000a0     rts6600_elf.lib : lowlev.obj (.text:write)
                  0c12dae0    000000a0     ti.targets.rts6000.ae66 : Assert.oe66 (.text:xdc_runtime_Assert_raise__I)
                  0c12db80    000000a0                             : LoggerBuf.oe66 (.text:xdc_runtime_LoggerBuf_Module_startup__F)
                  0c12dc20    000000a0                             : SysMin.oe66 (.text:xdc_runtime_SysMin_abort__F)
                  0c12dcc0    000000a0                             : SysMin.oe66 (.text:xdc_runtime_SysMin_flush__F)
                  0c12dd60    000000a0                             : SysMin.oe66 (.text:xdc_runtime_SysMin_putch__F)
                  0c12de00    00000080     ti.drv.cppi.ae66 : cppi_drv.oe66 (.text:Cppi_setCpdmaLoopback)
                  0c12de80    00000080     Hwi.obj (.text)
                  0c12df00    00000080     stk.ae66 : icmp.oe66 (.text:ICMPChecksum)
                  0c12df80    00000080     netctrl_min_ipv4.ae66 : netctrl.oe66 (.text:NC_SystemClose)
                  0c12e000    00000080     stk.ae66 : nimu.oe66 (.text:NIMUInit)
                  0c12e080    00000080              : pbm.oe66 (.text:PBMQ_deq)
                  0c12e100    00000080     ti.drv.pa.ae66 : painit.oe66 (.text:Pa_getBufferReq)
                  0c12e180    00000080     stk.ae66 : pipe.oe66 (.text:PipeClose)
                  0c12e200    00000080     ti.drv.qmss.ae66 : qmss_drv.oe66 (.text:Qmss_getMemRegQueueHandle)
                  0c12e280    00000080                      : qmss_drv.oe66 (.text:Qmss_queueOpen)
                  0c12e300    00000080     stk.ae66 : rawethsock.oe66 (.text:RawEthSockClose)
                  0c12e380    00000080              : rawethsock_pcb.oe66 (.text:RawEthSockPcbDetach)
                  0c12e400    00000080              : route.oe66 (.text:RtSetFailure)
                  0c12e480    00000080              : route.oe66 (.text:RtSetTimeout)
                  0c12e500    00000080              : sock.oe66 (.text:SockGetName)
                  0c12e580    00000080              : sockpcb.oe66 (.text:SockPcbCleanup)
                  0c12e600    00000080              : sockpcb.oe66 (.text:SockPcbDetach)
                  0c12e680    00000080     c6678_2dsp_ddr3_vpx_lib.lib : srio_drv.obj (.text:Srio_flushSockData)
                  0c12e700    00000080                                 : srio_drv.obj (.text:Srio_sockClose)
                  0c12e780    00000080     os.ae66 : task.oe66 (.text:TaskSetEnv)
                  0c12e800    00000080     stk.ae66 : tcpprot.oe66 (.text:TcpPrListen)
                  0c12e880    00000080              : timer.oe66 (.text:TimerHSTick)
                  0c12e900    00000080              : timer.oe66 (.text:TimerListRemove)
                  0c12e980    00000080     nettool_ipv4.ae66 : config.oe66 (.text:_CfgAcquire)
                  0c12ea00    00000080     stk.ae66 : lli.oe66 (.text:_LLIExpListRemove)
                  0c12ea80    00000080              : rtc.oe66 (.text:_RTCSendRtAdv)
                  0c12eb00    00000080              : rtable.oe66 (.text:_RtExpListRemove)
                  0c12eb80    00000080     rts6600_elf.lib : fixdu.obj (.text:__c6xabi_fixdu)
                  0c12ec00    00000080                     : llshift.obj (.text:__c6xabi_llshl)
                  0c12ec80    00000080     sysbios.lib : c62_TaskSupport_asm.obj (.text:_ti_sysbios_family_c62_TaskSupport_swap__E)
                  0c12ed00    00000080     ti.drv.cppi.ae66 : cppi_heap.oe66 (.text:cppi_internal_heap_cache_begin)
                  0c12ed80    00000080                      : cppi_listlib.oe66 (.text:cppi_list_remove)
                  0c12ee00    00000080     nettool_ipv4.ae66 : dhcpsock.oe66 (.text:dhcpSocketClose)
                  0c12ee80    00000080     stk.ae66 : file.oe66 (.text:fdint_waitevent)
                  0c12ef00    00000080     hal_timer_bios.ae66 : lltimer.oe66 (.text:llTimerGetTime)
                  0c12ef80    00000080     app_pe66.oe66 (.text:malloc)
                  0c12f000    00000080     ti.drv.pa.ae66 : pa.oe66 (.text:pa_uint8_match)
                  0c12f080    00000080     rts6600_elf.lib : trgmsg.obj (.text:readmsg)
                  0c12f100    00000080     ti.drv.pa.ae66 : pa.oe66 (.text:swizFcmd)
                  0c12f180    00000080     ti.platform.evm6678l.ae66 : evm66x_i2c.obj (.text)
                  0c12f200    00000080     app_pe66.oe66 (.text:ti_ndk_config_tcp_init)
                  0c12f280    00000080     sysbios.lib : BIOS.obj (.text:ti_sysbios_family_c62_TaskSupport_start__E)
                  0c12f300    00000080                 : BIOS.obj (.text:ti_sysbios_family_c64p_Exception_Module_startup__F)
                  0c12f380    00000080                 : BIOS.obj (.text:ti_sysbios_family_c64p_Hwi_eventMap__E)
                  0c12f400    00000080                 : BIOS.obj (.text:ti_sysbios_family_c66_Cache_wbInvAll__E)
                  0c12f480    00000080     app_pe66.oe66 (.text:ti_sysbios_gates_GateHwi_Object__create__S)
                  0c12f500    00000080     app_pe66.oe66 (.text:ti_sysbios_gates_GateMutex_Object__create__S)
                  0c12f580    00000080     app_pe66.oe66 (.text:ti_sysbios_heaps_HeapMem_Object__create__S)
                  0c12f600    00000080     sysbios.lib : BIOS.obj (.text:ti_sysbios_knl_Clock_Module_startup__F)
                  0c12f680    00000080     app_pe66.oe66 (.text:ti_sysbios_knl_Clock_Object__create__S)
                  0c12f700    00000080     app_pe66.oe66 (.text:ti_sysbios_knl_Clock_doTick__I)
                  0c12f780    00000080     sysbios.lib : BIOS.obj (.text:ti_sysbios_knl_Clock_getTicks__E)
                  0c12f800    00000080                 : BIOS.obj (.text:ti_sysbios_knl_Idle_loop__E)
                  0c12f880    00000080     app_pe66.oe66 (.text:ti_sysbios_knl_Queue_Object__create__S)
                  0c12f900    00000080     app_pe66.oe66 (.text:ti_sysbios_knl_Semaphore_Object__create__S)
                  0c12f980    00000080     sysbios.lib : BIOS.obj (.text:ti_sysbios_knl_Semaphore_pendTimeout__I)
                  0c12fa00    00000080                 : BIOS.obj (.text:ti_sysbios_knl_Swi_startup__E)
                  0c12fa80    00000080                 : BIOS.obj (.text:ti_sysbios_knl_Task_deleteTerminatedTasksFunc__I)
                  0c12fb00    00000080                 : BIOS.obj (.text:ti_sysbios_knl_Task_restore__E)
                  0c12fb80    00000080                 : BIOS.obj (.text:ti_sysbios_timers_timer64_Timer_getCount__E)
                  0c12fc00    00000080                 : BIOS.obj (.text:ti_sysbios_timers_timer64_Timer_getPeriod__E)
                  0c12fc80    00000080     rts6600_elf.lib : lowlev.obj (.text:unlink)
                  0c12fd00    00000080     ti.targets.rts6000.ae66 : Core-label.oe66 (.text:xdc_runtime_Core_assignLabel__I)
                  0c12fd80    00000080                             : Core-params.oe66 (.text:xdc_runtime_Core_assignParams__I)
                  0c12fe00    00000080                             : LoggerBuf.oe66 (.text:xdc_runtime_LoggerBuf_filterOutEvent__I)
                  0c12fe80    00000080                             : System.oe66 (.text:xdc_runtime_System_atexit__F)
                  0c12ff00    00000080                             : System.oe66 (.text:xdc_runtime_System_rtsExit__I)
                  0c12ff80    00000080                             : Text.oe66 (.text:xdc_runtime_Text_printVisFxn__I)
                  0c130000    00000080                             : Text.oe66 (.text:xdc_runtime_Text_xprintf__I)
                  0c130080    00000060     stk.ae66 : bind.oe66 (.text:BindFindByHost)
                  0c1300e0    00000060              : bind.oe66 (.text:BindFindByIF)
                  0c130140    00000060              : bind.oe66 (.text:BindFindByNet)
                  0c1301a0    00000060              : bind.oe66 (.text:BindGetIFByDBCast)
                  0c130200    00000060              : bind.oe66 (.text:BindIF2IPHost)
                  0c130260    00000060     ti.csl.ae66 : csl_cpIntcGetBaseAddress.oe66 (.text:CSL_CPINTC_open)
                  0c1302c0    00000060     nettool_ipv4.ae66 : config.oe66 (.text:CfgEntryInfo)
                  0c130320    00000060                       : config.oe66 (.text:CfgSetService)
                  0c130380    00000060     stk.ae66 : exec.oe66 (.text:ExecBroadcast)
                  0c1303e0    00000060              : igmp.oe66 (.text:IGMPTestGroup)
                  0c130440    00000060              : ip.oe66 (.text:IPChecksum)
                  0c1304a0    00000060              : lli.oe66 (.text:LLIFree)
                  0c130500    00000060              : nimu.oe66 (.text:NIMUAddHeader)
                  0c130560    00000060              : nimu.oe66 (.text:NIMUCreatePacket)
                  0c1305c0    00000060              : nimu.oe66 (.text:NIMUFindByIndex)
                  0c130620    00000060              : nimu.oe66 (.text:NIMUPacketService)
                  0c130680    00000060              : nimu.oe66 (.text:NIMUPacketServiceCheck)
                  0c1306e0    00000060              : nimu.oe66 (.text:NIMUSendPacket)
                  0c130740    00000060     netctrl_min_ipv4.ae66 : netsrv.oe66 (.text:NS_PreBoot)
                  0c1307a0    00000060     NetworkSend.obj (.text)
                  0c130800    00000060     stk.ae66 : rtc.oe66 (.text:RTCAddHook)
                  0c130860    00000060              : rtc.oe66 (.text:RTCRemoveHook)
                  0c1308c0    00000060     Raco_Vec_C6678.lib : Raco_Vec_C6678_Get_SN.obj (.text)
                  0c130920    00000060     stk.ae66 : rawethsock_pcb.oe66 (.text:RawEthSockPcbCleanup)
                  0c130980    00000060              : rawethsock_pcb.oe66 (.text:RawEthSockPcbFind)
                  0c1309e0    00000060              : rtable.oe66 (.text:RtWalkEnd)
                  0c130a40    00000060     netctrl_min_ipv4.ae66 : netsrv.oe66 (.text:ServiceCallback)
                  0c130aa0    00000060     stk.ae66 : sockprot.oe66 (.text:SockPrCtlError)
                  0c130b00    00000060              : sockprot.oe66 (.text:SockPrDetach)
                  0c130b60    00000060     c6678_2dsp_ddr3_vpx_lib.lib : srio_drv.obj (.text:Srio_allocTransmitBuffer)
                  0c130bc0    00000060                                 : srio_drv.obj (.text:Srio_freeRxDrvBuffer)
                  0c130c20    00000060     stk.ae66 : tcpprot.oe66 (.text:TcpPrConnect)
                  0c130c80    00000060              : tcptime.oe66 (.text:TcpSetPersist)
                  0c130ce0    00000060              : tcptime.oe66 (.text:TcpTimeoutPersist)
                  0c130d40    00000060              : vlan.oe66 (.text:VLANFindNode)
                  0c130da0    00000060              : vlan.oe66 (.text:VLANFindSourceInterface)
                  0c130e00    00000060              : vlan.oe66 (.text:VLANInit)
                  0c130e60    00000060     nettool_ipv4.ae66 : config.oe66 (.text:_CfgEntryProcess)
                  0c130ec0    00000060     rts6600_elf.lib : frcmpyd_div.obj (.text:__c6xabi_frcmpyd_div)
                  0c130f20    00000060                     : llshift.obj (.text:__c6xabi_llshru)
                  0c130f80    00000060                     : imath64.obj (.text:_subcull)
                  0c130fe0    00000060     ti.drv.cppi.ae66 : cppi_listlib.oe66 (.text:cppi_list_add)
                  0c131040    00000060                      : cppi_listlib.oe66 (.text:cppi_list_cache_invalidate)
                  0c1310a0    00000060     nettool_ipv4.ae66 : dhcpbild.oe66 (.text:dhcpBuildDiscover)
                  0c131100    00000060                       : dhcpsock.oe66 (.text:dhcpPacketReceive)
                  0c131160    00000060                       : dhcpsock.oe66 (.text:dhcpPacketSend)
                  0c1311c0    00000060     stk.ae66 : file.oe66 (.text:fdint_getfdt)
                  0c131220    00000060              : listlib.oe66 (.text:list_remove_node)
                  0c131280    00000060     os.ae66 : mem.oe66 (.text:mmUnInitPage)
                  0c1312e0    00000060     ti.drv.pa.ae66 : painit.oe66 (.text:pa_init_global_cfg)
                  0c131340    00000060                    : pa.oe66 (.text:pa_uint8_zero)
                  0c1313a0    00000060     miniPrintf.ae66 : miniPrintf.oe66 (.text:printf)
                  0c131400    00000060     app_pe66.oe66 (.text:ti_sysbios_BIOS_exitFunc__I)
                  0c131460    00000060     sysbios.lib : BIOS.obj (.text:ti_sysbios_BIOS_registerRTSLock__I)
                  0c1314c0    00000060                 : BIOS.obj (.text:ti_sysbios_family_c64p_EventCombiner_Module_startup__F)
                  0c131520    00000060                 : BIOS.obj (.text:ti_sysbios_family_c64p_EventCombiner_dispatchPlug__F)
                  0c131580    00000060                 : BIOS.obj (.text:ti_sysbios_family_c64p_EventCombiner_unused__F)
                  0c1315e0    00000060                 : BIOS.obj (.text:ti_sysbios_family_c64p_Hwi_restoreInterrupt__E)
                  0c131640    00000060                 : BIOS.obj (.text:ti_sysbios_gates_GateMutex_Instance_init__F)
                  0c1316a0    00000060                 : BIOS.obj (.text:ti_sysbios_hal_Hwi_initStack:ti_sysbios_hal_Hwi_initStack)
                  0c131700    00000060                 : BIOS.obj (.text:ti_sysbios_knl_Swi_Module_startup__F)
                  0c131760    00000060                 : BIOS.obj (.text:ti_sysbios_knl_Task_allBlockedFunction__I)
                  0c1317c0    00000060                 : BIOS.obj (.text:ti_sysbios_knl_Task_enter__I)
                  0c131820    00000060     rts6600_elf.lib : trgmsg.obj (.text:writemsg)
                  0c131880    00000060     ti.targets.rts6000.ae66 : Memory.oe66 (.text:xdc_runtime_Memory_calloc__F)
                  0c1318e0    00000060                             : SysMin.oe66 (.text:xdc_runtime_SysMin_Module_startup__F)
                  0c131940    00000060                             : SysMin.oe66 (.text:xdc_runtime_SysMin_exit__F)
                  0c1319a0    00000060     app_pe66.oe66 (.text:xdc_runtime_SysMin_output__I)
                  0c131a00    00000060     ti.targets.rts6000.ae66 : System.oe66 (.text:xdc_runtime_System_avprintf__F)
                  0c131a60    00000060                             : System.oe66 (.text:xdc_runtime_System_vprintf__F)
                  0c131ac0    00000060                             : Text.oe66 (.text:xdc_runtime_Text_cordText__F)
                  0c131b20    00000040     stk.ae66 : bind.oe66 (.text:BindGetIP)
                  0c131b60    00000040              : exec.oe66 (.text:ExecClose)
                  0c131ba0    00000040              : exec.oe66 (.text:ExecTimer)
                  0c131be0    00000040     netctrl_min_ipv4.ae66 : netctrl.oe66 (.text:NC_BootComplete)
                  0c131c20    00000040     os.ae66 : task.oe66 (.text:NDK_hookCreate)
                  0c131c60    00000040     nettool_ipv4.ae66 : ipaddr.oe66 (.text:NtRemoveNetwork)
                  0c131ca0    00000040     ti.drv.qmss.ae66 : qmss_drv.oe66 (.text:Qmss_ackInterrupt)
                  0c131ce0    00000040                      : qmss_drv.oe66 (.text:Qmss_getMemRegDescSize)
                  0c131d20    00000040     stk.ae66 : rawethsock_pcb.oe66 (.text:RawEthSockPcbInit)
                  0c131d60    00000040     nettool_ipv4.ae66 : ipaddr.oe66 (.text:RouteHook)
                  0c131da0    00000040     stk.ae66 : sockpcb.oe66 (.text:SockPcbAttach)
                  0c131de0    00000040              : sockint.oe66 (.text:SockSetOOBMark)
                  0c131e20    00000040     os.ae66 : task.oe66 (.text:TaskDestroy)
                  0c131e60    00000040     stk.ae66 : tcp.oe66 (.text:TcpTimeoutRemove)
                  0c131ea0    00000040              : tcptime.oe66 (.text:TcpTimeoutWait2)
                  0c131ee0    00000040     rts6600_elf.lib : call_stub.obj (.text:__call_stub)
                  0c131f20    00000040                     : strasg.obj (.text:__strasgi_64plus)
                  0c131f60    00000040                     : args_main.obj (.text:_args_main)
                  0c131fa0    00000040     hal_timer_bios.ae66 : lltimer.oe66 (.text:_llTimerInit)
                  0c131fe0    00000040     sysbios.lib : c62_TaskSupport_asm.obj (.text:_ti_sysbios_family_c62_TaskSupport_buildTaskStack)
                  0c132020    00000040                 : c64p_Hwi_asm_switch.obj (.text:_ti_sysbios_family_xxx_Hwi_switchToIsrStack)
                  0c132060    00000040     stk.ae66 : file.oe66 (.text:fdint_freefdt)
                  0c1320a0    00000040     app_pe66.oe66 (.text:free)
                  0c1320e0    00000040     nettool_ipv4.ae66 : inetaddr.oe66 (.text:inet_addr)
                  0c132120    00000040     stk.ae66 : listlib.oe66 (.text:list_add)
                  0c132160    00000040              : listlib.oe66 (.text:list_remove)
                  0c1321a0    00000040     ti.drv.pa.ae66 : pa.oe66 (.text:pa_mac_match)
                  0c1321e0    00000040     rts6600_elf.lib : fputs.obj (.text:puts)
                  0c132220    00000040     sysbios.lib : BIOS.obj (.text:rtsLock$0)
                  0c132260    00000040     miniPrintf.ae66 : miniPrintf.oe66 (.text:sprintf)
                  0c1322a0    00000040     app_pe66.oe66 (.text:ti_sysbios_BIOS_startFunc__I)
                  0c1322e0    00000040     sysbios.lib : BIOS.obj (.text:ti_sysbios_BIOS_start__E)
                  0c132320    00000040                 : BIOS.obj (.text:ti_sysbios_family_c64p_EventCombiner_disableEvent__F)
                  0c132360    00000040                 : BIOS.obj (.text:ti_sysbios_family_c64p_EventCombiner_enableEvent__F)
                  0c1323a0    00000040     app_pe66.oe66 (.text:ti_sysbios_family_c64p_Hwi_Module__startupDone__F)
                  0c1323e0    00000040     sysbios.lib : BIOS.obj (.text:ti_sysbios_family_c64p_Hwi_disableInterrupt__E)
                  0c132420    00000040                 : BIOS.obj (.text:ti_sysbios_family_c64p_Hwi_enableInterrupt__E)
                  0c132460    00000040     app_pe66.oe66 (.text:ti_sysbios_gates_GateHwi_Handle__label__S)
                  0c1324a0    00000040     app_pe66.oe66 (.text:ti_sysbios_gates_GateHwi_Object__delete__S)
                  0c1324e0    00000040     app_pe66.oe66 (.text:ti_sysbios_gates_GateMutex_Handle__label__S)
                  0c132520    00000040     sysbios.lib : BIOS.obj (.text:ti_sysbios_gates_GateMutex_Instance_finalize__F)
                  0c132560    00000040     app_pe66.oe66 (.text:ti_sysbios_gates_GateMutex_Object__delete__S)
                  0c1325a0    00000040     sysbios.lib : BIOS.obj (.text:ti_sysbios_gates_GateMutex_leave__E)
                  0c1325e0    00000040     app_pe66.oe66 (.text:ti_sysbios_hal_Timer_Module__startupDone__F)
                  0c132620    00000040     app_pe66.oe66 (.text:ti_sysbios_heaps_HeapMem_Handle__label__S)
                  0c132660    00000040     app_pe66.oe66 (.text:ti_sysbios_heaps_HeapMem_Object__delete__S)
                  0c1326a0    00000040     app_pe66.oe66 (.text:ti_sysbios_heaps_HeapMem_Object__get__S)
                  0c1326e0    00000040     app_pe66.oe66 (.text:ti_sysbios_knl_Clock_Object__destruct__S)
                  0c132720    00000040     app_pe66.oe66 (.text:ti_sysbios_knl_Mailbox_Object__get__S)
                  0c132760    00000040     app_pe66.oe66 (.text:ti_sysbios_knl_Queue_Object__destruct__S)
                  0c1327a0    00000040     sysbios.lib : BIOS.obj (.text:ti_sysbios_knl_Semaphore_Instance_finalize__F)
                  0c1327e0    00000040     app_pe66.oe66 (.text:ti_sysbios_knl_Semaphore_Object__delete__S)
                  0c132820    00000040     app_pe66.oe66 (.text:ti_sysbios_knl_Semaphore_Object__destruct__S)
                  0c132860    00000040     app_pe66.oe66 (.text:ti_sysbios_knl_Swi_Object__get__S)
                  0c1328a0    00000040     app_pe66.oe66 (.text:ti_sysbios_knl_Task_Object__delete__S)
                  0c1328e0    00000040     app_pe66.oe66 (.text:ti_sysbios_knl_Task_Object__get__S)
                  0c132920    00000040     sysbios.lib : BIOS.obj (.text:ti_sysbios_knl_Task_sleepTimeout__I)
                  0c132960    00000040     app_pe66.oe66 (.text:ti_sysbios_timers_timer64_Timer_Module__startupDone__F)
                  0c1329a0    00000040     ti.targets.rts6000.ae66 : Error.oe66 (.text:xdc_runtime_Error_check__F)
                  0c1329e0    00000040                             : Error.oe66 (.text:xdc_runtime_Error_init__F)
                  0c132a20    00000040                             : Gate.oe66 (.text:xdc_runtime_Gate_leaveSystem__F)
                  0c132a60    00000040     app_pe66.oe66 (.text:xdc_runtime_LoggerBuf_Handle__label__S)
                  0c132aa0    00000040     ti.targets.rts6000.ae66 : LoggerBuf.oe66 (.text:xdc_runtime_LoggerBuf_Instance_finalize__F)
                  0c132ae0    00000040     app_pe66.oe66 (.text:xdc_runtime_LoggerBuf_Object__delete__S)
                  0c132b20    00000040     app_pe66.oe66 (.text:xdc_runtime_LoggerBuf_Object__get__S)
                  0c132b60    00000040     ti.targets.rts6000.ae66 : LoggerBuf.oe66 (.text:xdc_runtime_LoggerBuf_write0__F)
                  0c132ba0    00000040                             : LoggerBuf.oe66 (.text:xdc_runtime_LoggerBuf_write1__F)
                  0c132be0    00000040                             : LoggerBuf.oe66 (.text:xdc_runtime_LoggerBuf_write2__F)
                  0c132c20    00000040                             : Memory.oe66 (.text:xdc_runtime_Memory_free__F)
                  0c132c60    00000040                             : Registry.oe66 (.text:xdc_runtime_Registry_findById__F)
                  0c132ca0    00000040                             : System.oe66 (.text:xdc_runtime_System_abort__F)
                  0c132ce0    00000040     app_pe66.oe66 (.text:xdc_runtime_System_aprintf__E)
                  0c132d20    00000040     app_pe66.oe66 (.text:xdc_runtime_System_printf__E)
                  0c132d60    00000040     ti.targets.rts6000.ae66 : Text.oe66 (.text:xdc_runtime_Text_ropeText__F)
                  0c132da0    00000020     stk.ae66 : bind.oe66 (.text:BindGetFirst)
                  0c132dc0    00000020              : bind.oe66 (.text:BindGetIF)
                  0c132de0    00000020              : bind.oe66 (.text:BindGetNext)
                  0c132e00    00000020              : bind.oe66 (.text:BindIFNet2IPHost)
                  0c132e20    00000020              : bind.oe66 (.text:BindIPHost2IF)
                  0c132e40    00000020     ti.csl.ae66 : csl_srioGetBaseAddress.oe66 (.text:CSL_SRIO_Open)
                  0c132e60    00000020     nettool_ipv4.ae66 : config.oe66 (.text:CfgSetDefault)
                  0c132e80    00000020     ti.drv.cppi.ae66 : cppi_drv.oe66 (.text:Cppi_init)
                  0c132ea0    00000020     stk.ae66 : exec.oe66 (.text:ExecHRef)
                  0c132ec0    00000020              : exec.oe66 (.text:ExecLowResource)
                  0c132ee0    00000020              : ip.oe66 (.text:IPRtChange)
                  0c132f00    00000020     hal_userled_stub.ae66 : llled.oe66 (.text:LED_TOGGLE)
                  0c132f20    00000020     netctrl_min_ipv4.ae66 : netctrl.oe66 (.text:NC_IPUpdate)
                  0c132f40    00000020                           : netctrl.oe66 (.text:NC_NetStop)
                  0c132f60    00000020     os.ae66 : task.oe66 (.text:NDK_hookInit)
                  0c132f80    00000020     stk.ae66 : nimu.oe66 (.text:NIMUGetRsvdSizeInfo)
                  0c132fa0    00000020              : nimu.oe66 (.text:NIMUSetRsvdSizeInfo)
                  0c132fc0    00000020              : nat.oe66 (.text:NatMsg)
                  0c132fe0    00000020              : node.oe66 (.text:NodeGetRt)
                  0c133000    00000020              : node.oe66 (.text:NodeSetRt)
                  0c133020    00000020     os.ae66 : task.oe66 (.text:NotifyLowResource)
                  0c133040    00000020             : oem.oe66 (.text:OEMCacheClean)
                  0c133060    00000020             : oem.oe66 (.text:OEMSysCritOff)
                  0c133080    00000020             : oem.oe66 (.text:OEMSysCritOn)
                  0c1330a0    00000020     stk.ae66 : pbm.oe66 (.text:PBM_close)
                  0c1330c0    00000020     ti.drv.qmss.ae66 : qmss_drv.oe66 (.text:Qmss_getQueueNumber)
                  0c1330e0    00000020                      : qmss_drv.oe66 (.text:Qmss_start)
                  0c133100    00000020     stk.ae66 : rawethsock_prot.oe66 (.text:RawEthSockPrAttach)
                  0c133120    00000020              : rawethsock_prot.oe66 (.text:RawEthSockPrDetach)
                  0c133140    00000020     os.ae66 : semaphore.oe66 (.text:SemDelete)
                  0c133160    00000020             : semaphore.oe66 (.text:SemPend)
                  0c133180    00000020             : semaphore.oe66 (.text:SemPost)
                  0c1331a0    00000020             : semaphore.oe66 (.text:SemReset)
                  0c1331c0    00000020     stk.ae66 : sockprot.oe66 (.text:SockPrAttach)
                  0c1331e0    00000020              : sockint.oe66 (.text:SockSetOOBData)
                  0c133200    00000020     os.ae66 : task.oe66 (.text:TaskBlock)
                  0c133220    00000020             : task.oe66 (.text:TaskSelf)
                  0c133240    00000020             : task.oe66 (.text:TaskSetPri)
                  0c133260    00000020     stk.ae66 : tcpprot.oe66 (.text:TcpPrRecv)
                  0c133280    00000020              : tcp.oe66 (.text:TcpTimeoutAdd)
                  0c1332a0    00000020              : timer.oe66 (.text:TimerFree)
                  0c1332c0    00000020     os.ae66 : task.oe66 (.text:_TaskInit)
                  0c1332e0    00000020             : task.oe66 (.text:_TaskShutdown)
                  0c133300    00000020     rts6600_elf.lib : trunc.obj (.text:__c6xabi_trunc)
                  0c133320    00000020                     : dtor_list.obj (.text:__cxa_atexit)
                  0c133340    00000020                     : dtor_list.obj (.text:__cxa_ia64_exit)
                  0c133360    00000020                     : push.obj (.text:__pop_rts)
                  0c133380    00000020                     : push.obj (.text:__push_rts)
                  0c1333a0    00000020     ti.targets.rts6000.ae66 : xdc_noinit.oe66 (.text:__xdc__init)
                  0c1333c0    00000020     hal_ser_stub.ae66 : llserstb.oe66 (.text:_llSerialInit)
                  0c1333e0    00000020                       : llserstb.oe66 (.text:_llSerialServiceCheck)
                  0c133400    00000020                       : llserstb.oe66 (.text:_llSerialShutdown)
                  0c133420    00000020     hal_timer_bios.ae66 : lltimer.oe66 (.text:_llTimerShutdown)
                  0c133440    00000020     hal_userled_stub.ae66 : llled.oe66 (.text:_llUserLedInit)
                  0c133460    00000020                           : llled.oe66 (.text:_llUserLedShutdown)
                  0c133480    00000020     rts6600_elf.lib : _lock.obj (.text:_nop)
                  0c1334a0    00000020                     : _lock.obj (.text:_register_lock)
                  0c1334c0    00000020                     : _lock.obj (.text:_register_unlock)
                  0c1334e0    00000020     sysbios.lib : c62_TaskSupport_asm.obj (.text:_ti_sysbios_family_c62_TaskSupport_glue)
                  0c133500    00000020                 : c64p_Hwi_asm_switch.obj (.text:_ti_sysbios_family_xxx_Hwi_switchToTaskStack)
                  0c133520    00000020     rts6600_elf.lib : exit.obj (.text:abort)
                  0c133540    00000020                     : dtor_list.obj (.text:atexit)
                  0c133560    00000020     c6678_2dsp_ddr3_vpx_lib.lib : clear_gie.obj (.text)
                  0c133580    00000020                                 : restore_irp.obj (.text)
                  0c1335a0    00000020                                 : restore_itsr.obj (.text)
                  0c1335c0    00000020                                 : restore_nrp.obj (.text)
                  0c1335e0    00000020                                 : restore_pgie.obj (.text)
                  0c133600    00000020                                 : save_irp.obj (.text)
                  0c133620    00000020                                 : save_itsr.obj (.text)
                  0c133640    00000020                                 : save_nrp.obj (.text)
                  0c133660    00000020                                 : save_pgie.obj (.text)
                  0c133680    00000020                                 : set_gie.obj (.text)
                  0c1336a0    00000020     ti.drv.cppi.ae66 : cppi_heap.oe66 (.text:cppi_internal_heap_free)
                  0c1336c0    00000020                      : cppi_listlib.oe66 (.text:cppi_list_get_head)
                  0c1336e0    00000020                      : cppi_listlib.oe66 (.text:cppi_list_get_next)
                  0c133700    00000020     ti.csl.intc.ae66 : csl_intcHookIsr.oe66 (.text:csl_section:intc:CSL_intcHookIsr)
                  0c133720    00000020                      : _csl_intcNmiDummy.oe66 (.text:csl_section:intc)
                  0c133740    00000020     ti.csl.ae66 : csl_tsc.oe66 (.text:cslsys_section:tsc)
                  0c133760    00000020     rts6600_elf.lib : copy_decompress_none.obj (.text:decompress:none:__TI_decompress_none)
                  0c133780    00000020                     : copy_decompress_rle.obj (.text:decompress:rle24:__TI_decompress_rle24)
                  0c1337a0    00000020     stk.ae66 : file.oe66 (.text:fdint_signaltimeout)
                  0c1337c0    00000020              : listlib.oe66 (.text:list_get_head)
                  0c1337e0    00000020              : listlib.oe66 (.text:list_get_next)
                  0c133800    00000020     hal_ser_stub.ae66 : llserstb.oe66 (.text:llSerialService)
                  0c133820    00000020     hal_timer_bios.ae66 : lltimer.oe66 (.text:llTimerGetStartTime)
                  0c133840    00000020     sysbios.lib : BIOS.obj (.text:nullFunc$0)
                  0c133860    00000020     ti.drv.pa.ae66 : pa.oe66 (.text:pa_u16_match)
                  0c133880    00000020                    : pa.oe66 (.text:pa_u32_match)
                  0c1338a0    00000020     app_pe66.oe66 (.text:ti_ndk_config_Global_NetworkClose)
                  0c1338c0    00000020     app_pe66.oe66 (.text:ti_ndk_config_Global_NetworkOpen)
                  0c1338e0    00000020     app_pe66.oe66 (.text:ti_sysbios_BIOS_RtsGateProxy_enter__E)
                  0c133900    00000020     app_pe66.oe66 (.text:ti_sysbios_BIOS_RtsGateProxy_leave__E)
                  0c133920    00000020     sysbios.lib : BIOS.obj (.text:ti_sysbios_BIOS_setThreadType__E)
                  0c133940    00000020     app_pe66.oe66 (.text:ti_sysbios_family_c62_TaskSupport_Module__startupDone__S)
                  0c133960    00000020     sysbios.lib : BIOS.obj (.text:ti_sysbios_family_c62_TaskSupport_checkStack__E)
                  0c133980    00000020                 : BIOS.obj (.text:ti_sysbios_family_c62_TaskSupport_getStackAlignment__E)
                  0c1339a0    00000020                 : BIOS.obj (.text:ti_sysbios_family_c64p_Hwi_clearInterrupt__E)
                  0c1339c0    00000020                 : BIOS.obj (.text:ti_sysbios_family_c64p_Hwi_startup__E)
                  0c1339e0    00000020                 : BIOS.obj (.text:ti_sysbios_family_c64p_Hwi_switchFromBootStack__E)
                  0c133a00    00000020                 : BIOS.obj (.text:ti_sysbios_family_c64p_TimestampProvider_Module_startup__F)
                  0c133a20    00000020                 : BIOS.obj (.text:ti_sysbios_family_c64p_TimestampProvider_get64__E)
                  0c133a40    00000020                 : BIOS.obj (.text:ti_sysbios_family_c64p_tci6488_TimerSupport_enable__E)
                  0c133a60    00000020                 : BIOS.obj (.text:ti_sysbios_family_c66_Cache_inv__E)
                  0c133a80    00000020                 : BIOS.obj (.text:ti_sysbios_family_c66_Cache_wbInv__E)
                  0c133aa0    00000020                 : BIOS.obj (.text:ti_sysbios_family_c66_Cache_wb__E)
                  0c133ac0    00000020                 : BIOS.obj (.text:ti_sysbios_gates_GateHwi_Instance_init__F)
                  0c133ae0    00000020                 : BIOS.obj (.text:ti_sysbios_gates_GateHwi_enter__E)
                  0c133b00    00000020                 : BIOS.obj (.text:ti_sysbios_gates_GateHwi_leave__E)
                  0c133b20    00000020                 : BIOS.obj (.text:ti_sysbios_gates_GateHwi_query__F)
                  0c133b40    00000020                 : BIOS.obj (.text:ti_sysbios_gates_GateMutex_query__F)
                  0c133b60    00000020     app_pe66.oe66 (.text:ti_sysbios_hal_Hwi_HwiProxy_Module__startupDone__S)
                  0c133b80    00000020     sysbios.lib : BIOS.obj (.text:ti_sysbios_hal_Hwi_Module_startup__F)
                  0c133ba0    00000020                 : BIOS.obj (.text:ti_sysbios_hal_Timer_Module_startup__F)
                  0c133bc0    00000020     app_pe66.oe66 (.text:ti_sysbios_hal_Timer_TimerProxy_Module__startupDone__S)
                  0c133be0    00000020     app_pe66.oe66 (.text:ti_sysbios_hal_Timer_TimerProxy_getExpiredCounts__E)
                  0c133c00    00000020     app_pe66.oe66 (.text:ti_sysbios_hal_Timer_TimerProxy_getPeriod__E)
                  0c133c20    00000020     app_pe66.oe66 (.text:ti_sysbios_hal_Timer_TimerProxy_setNextTick__E)
                  0c133c40    00000020     app_pe66.oe66 (.text:ti_sysbios_heaps_HeapMem_Module_GateProxy_enter__E)
                  0c133c60    00000020     app_pe66.oe66 (.text:ti_sysbios_heaps_HeapMem_Module_GateProxy_leave__E)
                  0c133c80    00000020     sysbios.lib : BIOS.obj (.text:ti_sysbios_heaps_HeapMem_isBlocking__E)
                  0c133ca0    00000020     app_pe66.oe66 (.text:ti_sysbios_io_DEV_Object__get__S)
                  0c133cc0    00000020     app_pe66.oe66 (.text:ti_sysbios_knl_Clock_Params__init__S)
                  0c133ce0    00000020     sysbios.lib : BIOS.obj (.text:ti_sysbios_knl_Queue_Instance_init__F)
                  0c133d00    00000020     app_pe66.oe66 (.text:ti_sysbios_knl_Queue_Object__get__S)
                  0c133d20    00000020     sysbios.lib : BIOS.obj (.text:ti_sysbios_knl_Queue_empty__E)
                  0c133d40    00000020                 : BIOS.obj (.text:ti_sysbios_knl_Semaphore_reset__E)
                  0c133d60    00000020                 : BIOS.obj (.text:ti_sysbios_knl_Swi_disable__E)
                  0c133d80    00000020     app_pe66.oe66 (.text:ti_sysbios_knl_Task_Object__first__S)
                  0c133da0    00000020     app_pe66.oe66 (.text:ti_sysbios_knl_Task_Object__next__S)
                  0c133dc0    00000020     app_pe66.oe66 (.text:ti_sysbios_knl_Task_Params__init__S)
                  0c133de0    00000020     app_pe66.oe66 (.text:ti_sysbios_knl_Task_SupportProxy_Module__startupDone__S)
                  0c133e00    00000020     sysbios.lib : BIOS.obj (.text:ti_sysbios_knl_Task_disable__E)
                  0c133e20    00000020                 : BIOS.obj (.text:ti_sysbios_knl_Task_getHookContext__E)
                  0c133e40    00000020                 : BIOS.obj (.text:ti_sysbios_knl_Task_self__E)
                  0c133e60    00000020                 : BIOS.obj (.text:ti_sysbios_knl_Task_setHookContext__E)
                  0c133e80    00000020                 : BIOS.obj (.text:ti_sysbios_timers_timer64_Timer_setNextTick__E)
                  0c133ea0    00000020     miniPrintf.ae66 : miniPrintf.oe66 (.text:vsprintf)
                  0c133ec0    00000020     ti.targets.rts6000.ae66 : Error.oe66 (.text:xdc_runtime_Error_getMsg__F)
                  0c133ee0    00000020                             : Gate.oe66 (.text:xdc_runtime_Gate_enterSystem__F)
                  0c133f00    00000020     app_pe66.oe66 (.text:xdc_runtime_IHeap_alloc)
                  0c133f20    00000020     app_pe66.oe66 (.text:xdc_runtime_IHeap_free)
                  0c133f40    00000020     app_pe66.oe66 (.text:xdc_runtime_LoggerBuf_Module_GateProxy_enter__E)
                  0c133f60    00000020     app_pe66.oe66 (.text:xdc_runtime_LoggerBuf_Module_GateProxy_leave__E)
                  0c133f80    00000020     ti.targets.rts6000.ae66 : LoggerBuf.oe66 (.text:xdc_runtime_LoggerBuf_disable__F)
                  0c133fa0    00000020                             : LoggerBuf.oe66 (.text:xdc_runtime_LoggerBuf_enable__F)
                  0c133fc0    00000020     app_pe66.oe66 (.text:xdc_runtime_Memory_HeapProxy_alloc__E)
                  0c133fe0    00000020     app_pe66.oe66 (.text:xdc_runtime_Memory_HeapProxy_free__E)
                  0c134000    00000020     ti.targets.rts6000.ae66 : Memory.oe66 (.text:xdc_runtime_Memory_getMaxDefaultTypeAlign__F)
                  0c134020    00000020     app_pe66.oe66 (.text:xdc_runtime_Startup_exec__I)
                  0c134040    00000020     ti.targets.rts6000.ae66 : SysMin.oe66 (.text:xdc_runtime_SysMin_ready__F)
                  0c134060    00000020     app_pe66.oe66 (.text:xdc_runtime_System_Module_GateProxy_enter__E)
                  0c134080    00000020     app_pe66.oe66 (.text:xdc_runtime_System_Module_GateProxy_leave__E)
                  0c1340a0    00000020     ti.targets.rts6000.ae66 : System.oe66 (.text:xdc_runtime_System_Module_startup__F)
                  0c1340c0    00000020                             : System.oe66 (.text:xdc_runtime_System_exit__F)
                  0c1340e0    00000020                             : System.oe66 (.text:xdc_runtime_System_lastFxn__I)
                  0c134100    00000020                             : System.oe66 (.text:xdc_runtime_System_vsprintf__F)
                  0c134120    00000020     app_pe66.oe66 (.text:xdc_runtime_Text_visitRope__I)

.far       0    0c134140    0004d784     
                  0c134140    00040688     app_pe66.oe66 (.far) [fill = 0]
                  0c1747c8    0000c1c0     app_pe66.oe66 (.far:NDK_MMBUFFER:uninit) [fill = 0]
                  0c180988    00000640     GlobalVar.obj (.far) [fill = 0]
                  0c180fc8    00000140     rts6600_elf.lib : defs.obj (.far) [fill = 0]
                  0c181108    00000120     ti.drv.qmss.ae66 : qmss_drv.oe66 (.far) [fill = 0]
                  0c181228    00000008     rts6600_elf.lib : trgdrv.obj (.far) [fill = 0]
                  0c181230    00000110     stk.ae66 : igmp.oe66 (.far) [fill = 0]
                  0c181340    000000d8     netctrl_min_ipv4.ae66 : netsrv.oe66 (.far) [fill = 0]
                  0c181418    000000c4     stk.ae66 : tcp.oe66 (.far) [fill = 0]
                  0c1814dc    00000004              : rawethsock_pcb.oe66 (.far) [fill = 0]
                  0c1814e0    000000a0     miniPrintf.ae66 : miniPrintf.oe66 (.far) [fill = 0]
                  0c181580    0000009c     stk.ae66 : icmp.oe66 (.far) [fill = 0]
                  0c18161c    00000004     --HOLE--
                  0c181620    0000007c     os.ae66 : mem.oe66 (.far) [fill = 0]
                  0c18169c    00000068     stk.ae66 : ip.oe66 (.far) [fill = 0]
                  0c181704    00000060              : nimu.oe66 (.far) [fill = 0]
                  0c181764    00000004     --HOLE--
                  0c181768    00000044     ti.platform.evm6678l.ae66 : evmc66x_i2c_eeprom.obj (.far) [fill = 0]
                  0c1817ac    00000030     stk.ae66 : udp.oe66 (.far) [fill = 0]
                  0c1817dc    00000004     --HOLE--
                  0c1817e0    00000030     ti.transport.ndk.nimu.ae66 : nimu_eth.obj (.far) [fill = 0]
                  0c181810    00000028     stk.ae66 : vlan.oe66 (.far) [fill = 0]
                  0c181838    00000020     resourcemgr.obj (.far) [fill = 0]
                  0c181858    0000001c     app_pe66.oe66 (.far:NDK_MMBUFFER:init)
                  0c181874    0000000c     stk.ae66 : pbm.oe66 (.far) [fill = 0]
                  0c181880    00000014              : rtc.oe66 (.far) [fill = 0]
                  0c181894    00000010     netctrl_min_ipv4.ae66 : netctrl.oe66 (.far) [fill = 0]
                  0c1818a4    00000010     stk.ae66 : raw.oe66 (.far) [fill = 0]
                  0c1818b4    00000010              : raweth.oe66 (.far) [fill = 0]

.const.1   0    0c1818d0    00000030     
                  0c1818d0    00000030     app_pe66.oe66 (.const:ti_sysbios_knl_Task_hooks__A)

.far:NDK_PACKETMEM 
*          0    0c181900    0004b900     UNINITIALIZED
                  0c181900    0004b900     app_pe66.oe66 (.far:NDK_PACKETMEM)

.const.2   0    0c1cd200    00000200     
                  0c1cd200    000001c8     app_pe66.oe66 (.const:.string)
                  0c1cd3c8    00000038     app_pe66.oe66 (.const:ti_sysbios_knl_Task_Object__PARAMS__C)

.qmssSharedMem 
*          0    0c1cd400    00002420     UNINITIALIZED
                  0c1cd400    00002420     c6678_2dsp_ddr3_vpx_lib.lib : qmss_drv.obj (.qmssSharedMem)

.cppiSharedMem 
*          0    0c1cf880    00001c00     
                  0c1cf880    00001a78     c6678_2dsp_ddr3_vpx_lib.lib : cppi_drv.obj (.cppiSharedMem:init)
                  0c1d12f8    00000008     --HOLE-- [fill = 0]
                  0c1d1300    00000180                                 : cppi_drv.obj (.cppiSharedMem:uninit) [fill = 0]

.i2ceeprom 
*          0    0c1d1480    00000000     UNINITIALIZED

.emif16nandflash 
*          0    0c1d1480    00000000     UNINITIALIZED

.srioSharedMem 
*          0    0c1d1500    00007004     
                  0c1d1500    00006b00     c6678_2dsp_ddr3_vpx_lib.lib : srio_drv.obj (.srioSharedMem:init)
                  0c1d8000    00000504                                 : srio_drv.obj (.srioSharedMem:uninit) [fill = 0]

.ChipIntc 
*          0    0c1d8580    00000010     UNINITIALIZED
                  0c1d8580    00000010     c6678_2dsp_ddr3_vpx_lib.lib : intc.obj (.ChipIntc)

.Sharemem 
*          0    0c1d8590    00000000     UNINITIALIZED

.timerSharedMem 
*          0    0c1d8590    00000000     UNINITIALIZED

.GPIO      0    0c1d8590    00000000     UNINITIALIZED

.csl_vect 
*          0    0c1d8800    00000200     
                  0c1d8800    00000200     ti.csl.intc.ae66 : _csl_intcIsrDispatch.oe66 (.csl_vect)

.const.3   0    0c1d8a00    000090ee     
                  0c1d8a00    00001dc8     resourcemgr.obj (.const:c1)
                  0c1da7c8    000018ac     resourcemgr.obj (.const:m)
                  0c1dc074    00000004     ti.targets.rts6000.ae66 : Assert.oe66 (.const:.string)
                  0c1dc078    000013eb     app_pe66.oe66 (.const:xdc_runtime_Text_charTab__A)
                  0c1dd463    00000001     --HOLE-- [fill = 0]
                  0c1dd464    00000004     ti.platform.evm6678l.ae66 : evmc66x_i2c_eeprom.obj (.const)
                  0c1dd468    0000118c     resourcemgr.obj (.const:c2)
                  0c1de5f4    000007d4     ti.transport.ndk.nimu.ae66 : nimu_eth.obj (.const:.string)
                  0c1dedc8    00000630     c6678_2dsp_ddr3_vpx_lib.lib : qmss_drv.obj (.const:Radar_acc48_le)
                  0c1df3f8    00000630     resourcemgr.obj (.const:acc48_le)
                  0c1dfa28    0000042c     sysbios.lib : BIOS.obj (.const:.string)
                  0c1dfe54    00000004     ti.platform.evm6678l.ae66 : evmc66x_spi.obj (.const)
                  0c1dfe58    00000400     app_pe66.oe66 (.const:ti_sysbios_family_c66_Cache_marvalues__C)
                  0c1e0258    00000398     resourcemgr.obj (.const:.string)
                  0c1e05f0    0000014f     os.ae66 : mem.oe66 (.const:.string)
                  0c1e073f    00000001     --HOLE-- [fill = 0]
                  0c1e0740    00000128     app_pe66.oe66 (.const:xdc_runtime_Text_nodeTab__A)
                  0c1e0868    00000109     os.ae66 : task.oe66 (.const:.string)
                  0c1e0971    000000d9     stk.ae66 : vlan.oe66 (.const:.string)
                  0c1e0a4a    000000cf              : rtc.oe66 (.const:.string)
                  0c1e0b19    000000bf              : lliout.oe66 (.const:.string)
                  0c1e0bd8    000000b8              : node.oe66 (.const:.string)
                  0c1e0c90    00000094              : nimu.oe66 (.const:.string)
                  0c1e0d24    00000004     ti.platform.evm6678l.ae66 : evmc66x_uart.obj (.const)
                  0c1e0d28    00000080     c6678_2dsp_ddr3_vpx_lib.lib : cppi_drv.obj (.const:.string:Radar_cppiLldVersionStr)
                  0c1e0da8    00000080                                 : qmss_drv.obj (.const:.string:Radar_qmssLldVersionStr)
                  0c1e0e28    00000064     ti.platform.evm6678l.ae66 : platform.obj (.const)
                  0c1e0e8c    00000064     ti.transport.ndk.nimu.ae66 : nimu_eth.obj (.const)
                  0c1e0ef0    00000060     stk.ae66 : sb.oe66 (.const:.string)
                  0c1e0f50    00000060     ti.drv.pa.ae66 : pa.oe66 (.const:pap_pdsp_const_reg_map)
                  0c1e0fb0    00000058     stk.ae66 : tcptime.oe66 (.const:.string)
                  0c1e1008    00000058     ti.targets.rts6000.ae66 : Error.oe66 (.const:.string)
                  0c1e1060    00000055     ti.platform.evm6678l.ae66 : platform.obj (.const:.string)
                  0c1e10b5    0000000b     stk.ae66 : route.oe66 (.const:.string)
                  0c1e10c0    00000054              : sockprot.oe66 (.const:Code2Err)
                  0c1e1114    00000050              : bind.oe66 (.const:.string)
                  0c1e1164    0000004e              : rtable.oe66 (.const:.string)
                  0c1e11b2    00000002     rts6600_elf.lib : fputs.obj (.const:.string)
                  0c1e11b4    00000040     ti.targets.rts6000.ae66 : Text.oe66 (.const:.string)
                  0c1e11f4    00000004     app_pe66.oe66 (.const:ti_sysbios_BIOS_Module__diagsEnabled__C)
                  0c1e11f8    00000040     app_pe66.oe66 (.const:xdc_runtime_Startup_sfxnTab__A)
                  0c1e1238    0000003c     app_pe66.oe66 (.const:xdc_runtime_LoggerBuf_Module__FXNS__C)
                  0c1e1274    00000037     netctrl_min_ipv4.ae66 : netctrl.oe66 (.const:.string)
                  0c1e12ab    00000031     nettool_ipv4.ae66 : dhcpmain.oe66 (.const:.string)
                  0c1e12dc    00000031     stk.ae66 : pbm.oe66 (.const:.string)
                  0c1e130d    0000002f              : sock.oe66 (.const:.string)
                  0c1e133c    0000002c     ti.targets.rts6000.ae66 : Startup.oe66 (.const:.string)
                  0c1e1368    00000028     os.ae66 : semaphore.oe66 (.const:.string)
                  0c1e1390    00000028     app_pe66.oe66 (.const:ti_sysbios_heaps_HeapMem_Module__FXNS__C)
                  0c1e13b8    00000028     app_pe66.oe66 (.const:xdc_runtime_LoggerBuf_Object__PARAMS__C)
                  0c1e13e0    00000024     app_pe66.oe66 (.const:ti_sysbios_gates_GateHwi_Module__FXNS__C)
                  0c1e1404    00000024     app_pe66.oe66 (.const:ti_sysbios_gates_GateMutex_Module__FXNS__C)
                  0c1e1428    00000024     app_pe66.oe66 (.const:ti_sysbios_knl_Clock_Object__PARAMS__C)
                  0c1e144c    00000024     app_pe66.oe66 (.const:ti_sysbios_knl_Semaphore_Object__PARAMS__C)
                  0c1e1470    00000020     ti.targets.rts6000.ae66 : Core-mem.oe66 (.const:.string)
                  0c1e1490    00000020     app_pe66.oe66 (.const:ti_sysbios_gates_GateHwi_Object__DESC__C)
                  0c1e14b0    00000020     app_pe66.oe66 (.const:ti_sysbios_gates_GateMutex_Object__DESC__C)
                  0c1e14d0    00000020     app_pe66.oe66 (.const:ti_sysbios_heaps_HeapMem_Object__DESC__C)
                  0c1e14f0    00000020     app_pe66.oe66 (.const:ti_sysbios_heaps_HeapMem_Object__PARAMS__C)
                  0c1e1510    00000020     app_pe66.oe66 (.const:ti_sysbios_knl_Clock_Object__DESC__C)
                  0c1e1530    00000020     app_pe66.oe66 (.const:ti_sysbios_knl_Queue_Object__DESC__C)
                  0c1e1550    00000020     app_pe66.oe66 (.const:ti_sysbios_knl_Semaphore_Object__DESC__C)
                  0c1e1570    00000020     app_pe66.oe66 (.const:ti_sysbios_knl_Task_Object__DESC__C)
                  0c1e1590    00000020     app_pe66.oe66 (.const:xdc_runtime_LoggerBuf_Object__DESC__C)
                  0c1e15b0    00000020     app_pe66.oe66 (.const:xdc_runtime_Startup_sfxnRts__A)
                  0c1e15d0    0000001e     ti.transport.ndk.nimu.ae66 : nimu_eth.obj (.const:$P$T4$5)
                  0c1e15ee    0000001d     stk.ae66 : lli.oe66 (.const:.string)
                  0c1e160b    00000001     --HOLE-- [fill = 0]
                  0c1e160c    00000004     app_pe66.oe66 (.const:ti_sysbios_BIOS_Module__diagsIncluded__C)
                  0c1e1610    00000018     c6678_2dsp_ddr3_vpx_lib.lib : srio_drv.obj (.const:$P$T0$1)
                  0c1e1628    00000018     ti.transport.ndk.nimu.ae66 : nimu_eth.obj (.const:$P$T3$4)
                  0c1e1640    00000018     nettool_ipv4.ae66 : config.oe66 (.const:.string)
                  0c1e1658    00000018     stk.ae66 : exec.oe66 (.const:.string)
                  0c1e1670    00000018     resourcemgr.obj (.const)
                  0c1e1688    00000018     app_pe66.oe66 (.const:ti_sysbios_gates_GateHwi_Object__PARAMS__C)
                  0c1e16a0    00000018     app_pe66.oe66 (.const:ti_sysbios_gates_GateMutex_Object__PARAMS__C)
                  0c1e16b8    00000018     app_pe66.oe66 (.const:ti_sysbios_knl_Queue_Object__PARAMS__C)
                  0c1e16d0    00000017     stk.ae66 : ipout.oe66 (.const:.string)
                  0c1e16e7    00000001     --HOLE-- [fill = 0]
                  0c1e16e8    00000014     ti.platform.evm6678l.ae66 : evmc66x_nor.obj (.const)
                  0c1e16fc    00000013     stk.ae66 : fileuser.oe66 (.const:.string)
                  0c1e170f    00000011              : tcpprot.oe66 (.const:.string)
                  0c1e1720    00000011     ti.targets.rts6000.ae66 : System.oe66 (.const:digtohex)
                  0c1e1731    00000003     --HOLE-- [fill = 0]
                  0c1e1734    00000004     app_pe66.oe66 (.const:ti_sysbios_BIOS_Module__diagsMask__C)
                  0c1e1738    00000010     ti.drv.pa.ae66 : painit.oe66 (.const:paMemAligns)
                  0c1e1748    00000010     app_pe66.oe66 (.const:ti_sysbios_family_c64p_EventCombiner_EVTMASK__C)
                  0c1e1758    0000000e     os.ae66 : ossys.oe66 (.const:.string)
                  0c1e1766    0000000e     stk.ae66 : timer.oe66 (.const:.string)
                  0c1e1774    0000000c     app_pe66.oe66 (.const:ti_sysbios_family_c66_Cache_initSize__C)
                  0c1e1780    0000000c     app_pe66.oe66 (.const:xdc_runtime_Startup_firstFxns__A)
                  0c1e178c    00000004     app_pe66.oe66 (.const:ti_sysbios_BIOS_installedErrorHook__C)
                  0c1e1790    0000000a     ti.platform.evm6678l.ae66 : evm66x_nand.obj (.const:.string:$P$T0$1)
                  0c1e179a    00000002     --HOLE-- [fill = 0]
                  0c1e179c    00000004     app_pe66.oe66 (.const:ti_sysbios_family_c62_TaskSupport_stackAlignment__C)
                  0c1e17a0    0000000a     ti.platform.evm6678l.ae66 : evm66x_nand.obj (.const:.string:$P$T1$2)
                  0c1e17aa    00000002     --HOLE-- [fill = 0]
                  0c1e17ac    00000004     app_pe66.oe66 (.const:ti_sysbios_family_c64p_EventCombiner_E_unpluggedEvent__C)
                  0c1e17b0    00000008     ti.transport.ndk.nimu.ae66 : nimu_eth.obj (.const:$P$T10$11)
                  0c1e17b8    00000008                                : nimu_eth.obj (.const:$P$T5$6)
                  0c1e17c0    00000008     ti.targets.rts6000.ae66 : System.oe66 (.const:.string)
                  0c1e17c8    00000008     ti.platform.evm6678l.ae66 : evm66x_nand.obj (.const)
                  0c1e17d0    00000008                               : evmc66x_fpga.obj (.const)
                  0c1e17d8    00000008     app_pe66.oe66 (.const:ti_sysbios_knl_Idle_funcList__C)
                  0c1e17e0    00000008     app_pe66.oe66 (.const:ti_sysbios_knl_Task_hooks__C)
                  0c1e17e8    00000008     app_pe66.oe66 (.const:xdc_runtime_Startup_firstFxns__C)
                  0c1e17f0    00000008     app_pe66.oe66 (.const:xdc_runtime_Startup_lastFxns__A)
                  0c1e17f8    00000008     app_pe66.oe66 (.const:xdc_runtime_Startup_lastFxns__C)
                  0c1e1800    00000006     ti.transport.ndk.nimu.ae66 : nimu_eth.obj (.const:.string:$P$T0$1)
                  0c1e1806    00000002     --HOLE-- [fill = 0]
                  0c1e1808    00000006                                : nimu_eth.obj (.const:.string:$P$T6$7)
                  0c1e180e    00000002     --HOLE-- [fill = 0]
                  0c1e1810    00000006                                : nimu_eth.obj (.const:.string:$P$T7$8)
                  0c1e1816    00000002     --HOLE-- [fill = 0]
                  0c1e1818    00000004     app_pe66.oe66 (.const:ti_sysbios_family_c64p_Exception_E_exceptionMin__C)
                  0c1e181c    00000004     app_pe66.oe66 (.const:ti_sysbios_family_c64p_Exception_exceptionHook__C)
                  0c1e1820    00000004     app_pe66.oe66 (.const:ti_sysbios_family_c64p_Exception_externalHook__C)
                  0c1e1824    00000004     app_pe66.oe66 (.const:ti_sysbios_family_c64p_Exception_internalHook__C)
                  0c1e1828    00000004     app_pe66.oe66 (.const:ti_sysbios_family_c64p_Exception_nmiHook__C)
                  0c1e182c    00000004     app_pe66.oe66 (.const:ti_sysbios_family_c64p_Hwi_LD_end__C)
                  0c1e1830    00000004     app_pe66.oe66 (.const:ti_sysbios_family_c64p_Hwi_LM_begin__C)
                  0c1e1834    00000004     app_pe66.oe66 (.const:ti_sysbios_family_c64p_Hwi_Module__diagsEnabled__C)
                  0c1e1838    00000004     app_pe66.oe66 (.const:ti_sysbios_family_c64p_Hwi_Module__diagsIncluded__C)
                  0c1e183c    00000004     app_pe66.oe66 (.const:ti_sysbios_family_c64p_Hwi_Module__diagsMask__C)
                  0c1e1840    00000004     app_pe66.oe66 (.const:ti_sysbios_family_c64p_Hwi_Module__loggerFxn1__C)
                  0c1e1844    00000004     app_pe66.oe66 (.const:ti_sysbios_family_c64p_Hwi_Module__loggerFxn8__C)
                  0c1e1848    00000004     app_pe66.oe66 (.const:ti_sysbios_family_c64p_Hwi_Module__loggerObj__C)
                  0c1e184c    00000004     app_pe66.oe66 (.const:ti_sysbios_family_c66_Cache_atomicBlockSize__C)
                  0c1e1850    00000004     app_pe66.oe66 (.const:ti_sysbios_gates_GateMutex_A_badContext__C)
                  0c1e1854    00000004     app_pe66.oe66 (.const:ti_sysbios_gates_GateMutex_Instance_State_sem__O)
                  0c1e1858    00000004     app_pe66.oe66 (.const:ti_sysbios_gates_GateMutex_Module__diagsEnabled__C)
                  0c1e185c    00000004     app_pe66.oe66 (.const:ti_sysbios_gates_GateMutex_Module__diagsIncluded__C)
                  0c1e1860    00000004     app_pe66.oe66 (.const:ti_sysbios_gates_GateMutex_Module__diagsMask__C)
                  0c1e1864    00000004     app_pe66.oe66 (.const:ti_sysbios_heaps_HeapMem_A_align__C)
                  0c1e1868    00000004     app_pe66.oe66 (.const:ti_sysbios_heaps_HeapMem_A_heapSize__C)
                  0c1e186c    00000004     app_pe66.oe66 (.const:ti_sysbios_heaps_HeapMem_A_invalidFree__C)
                  0c1e1870    00000004     app_pe66.oe66 (.const:ti_sysbios_heaps_HeapMem_A_zeroBlock__C)
                  0c1e1874    00000004     app_pe66.oe66 (.const:ti_sysbios_heaps_HeapMem_E_memory__C)
                  0c1e1878    00000004     app_pe66.oe66 (.const:ti_sysbios_heaps_HeapMem_Module__diagsEnabled__C)
                  0c1e187c    00000004     app_pe66.oe66 (.const:ti_sysbios_heaps_HeapMem_Module__diagsIncluded__C)
                  0c1e1880    00000004     app_pe66.oe66 (.const:ti_sysbios_heaps_HeapMem_Module__diagsMask__C)
                  0c1e1884    00000004     app_pe66.oe66 (.const:ti_sysbios_heaps_HeapMem_Module__gateObj__C)
                  0c1e1888    00000004     app_pe66.oe66 (.const:ti_sysbios_heaps_HeapMem_Object__count__C)
                  0c1e188c    00000004     app_pe66.oe66 (.const:ti_sysbios_heaps_HeapMem_reqAlignMask__C)
                  0c1e1890    00000004     app_pe66.oe66 (.const:ti_sysbios_heaps_HeapMem_reqAlign__C)
                  0c1e1894    00000004     app_pe66.oe66 (.const:ti_sysbios_io_DEV_Object__count__C)
                  0c1e1898    00000004     app_pe66.oe66 (.const:ti_sysbios_io_DEV_tableSize__C)
                  0c1e189c    00000004     app_pe66.oe66 (.const:ti_sysbios_knl_Clock_A_badThreadType__C)
                  0c1e18a0    00000004     app_pe66.oe66 (.const:ti_sysbios_knl_Clock_LM_begin__C)
                  0c1e18a4    00000004     app_pe66.oe66 (.const:ti_sysbios_knl_Clock_LM_tick__C)
                  0c1e18a8    00000004     app_pe66.oe66 (.const:ti_sysbios_knl_Clock_LW_delayed__C)
                  0c1e18ac    00000004     app_pe66.oe66 (.const:ti_sysbios_knl_Clock_Module_State_clockQ__O)
                  0c1e18b0    00000004     app_pe66.oe66 (.const:ti_sysbios_knl_Clock_Module__diagsEnabled__C)
                  0c1e18b4    00000004     app_pe66.oe66 (.const:ti_sysbios_knl_Clock_Module__diagsIncluded__C)
                  0c1e18b8    00000004     app_pe66.oe66 (.const:ti_sysbios_knl_Clock_Module__diagsMask__C)
                  0c1e18bc    00000004     app_pe66.oe66 (.const:ti_sysbios_knl_Clock_Module__loggerFxn1__C)
                  0c1e18c0    00000004     app_pe66.oe66 (.const:ti_sysbios_knl_Clock_Module__loggerFxn2__C)
                  0c1e18c4    00000004     app_pe66.oe66 (.const:ti_sysbios_knl_Clock_Module__loggerObj__C)
                  0c1e18c8    00000004     app_pe66.oe66 (.const:ti_sysbios_knl_Clock_tickMode__C)
                  0c1e18cc    00000004     app_pe66.oe66 (.const:ti_sysbios_knl_Clock_tickSource__C)
                  0c1e18d0    00000004     app_pe66.oe66 (.const:ti_sysbios_knl_Idle_funcList__A)
                  0c1e18d4    00000004     app_pe66.oe66 (.const:ti_sysbios_knl_Mailbox_Instance_State_dataQue__O)
                  0c1e18d8    00000004     app_pe66.oe66 (.const:ti_sysbios_knl_Mailbox_Instance_State_dataSem__O)
                  0c1e18dc    00000004     app_pe66.oe66 (.const:ti_sysbios_knl_Mailbox_Instance_State_freeQue__O)
                  0c1e18e0    00000004     app_pe66.oe66 (.const:ti_sysbios_knl_Mailbox_Instance_State_freeSem__O)
                  0c1e18e4    00000004     app_pe66.oe66 (.const:ti_sysbios_knl_Mailbox_Object__count__C)
                  0c1e18e8    00000004     app_pe66.oe66 (.const:ti_sysbios_knl_Semaphore_A_badContext__C)
                  0c1e18ec    00000004     app_pe66.oe66 (.const:ti_sysbios_knl_Semaphore_A_noEvents__C)
                  0c1e18f0    00000004     app_pe66.oe66 (.const:ti_sysbios_knl_Semaphore_A_overflow__C)
                  0c1e18f4    00000004     app_pe66.oe66 (.const:ti_sysbios_knl_Semaphore_Instance_State_pendQ__O)
                  0c1e18f8    00000004     app_pe66.oe66 (.const:ti_sysbios_knl_Semaphore_LM_pend__C)
                  0c1e18fc    00000004     app_pe66.oe66 (.const:ti_sysbios_knl_Semaphore_LM_post__C)
                  0c1e1900    00000004     app_pe66.oe66 (.const:ti_sysbios_knl_Semaphore_Module__diagsEnabled__C)
                  0c1e1904    00000004     app_pe66.oe66 (.const:ti_sysbios_knl_Semaphore_Module__diagsIncluded__C)
                  0c1e1908    00000004     app_pe66.oe66 (.const:ti_sysbios_knl_Semaphore_Module__diagsMask__C)
                  0c1e190c    00000004     app_pe66.oe66 (.const:ti_sysbios_knl_Semaphore_Module__loggerFxn2__C)
                  0c1e1910    00000004     app_pe66.oe66 (.const:ti_sysbios_knl_Semaphore_Module__loggerFxn4__C)
                  0c1e1914    00000004     app_pe66.oe66 (.const:ti_sysbios_knl_Semaphore_Module__loggerObj__C)
                  0c1e1918    00000004     app_pe66.oe66 (.const:ti_sysbios_knl_Swi_LD_end__C)
                  0c1e191c    00000004     app_pe66.oe66 (.const:ti_sysbios_knl_Swi_LM_begin__C)
                  0c1e1920    00000004     app_pe66.oe66 (.const:ti_sysbios_knl_Swi_LM_post__C)
                  0c1e1924    00000004     app_pe66.oe66 (.const:ti_sysbios_knl_Swi_Module__diagsEnabled__C)
                  0c1e1928    00000004     app_pe66.oe66 (.const:ti_sysbios_knl_Swi_Module__diagsIncluded__C)
                  0c1e192c    00000004     app_pe66.oe66 (.const:ti_sysbios_knl_Swi_Module__diagsMask__C)
                  0c1e1930    00000004     app_pe66.oe66 (.const:ti_sysbios_knl_Swi_Module__loggerFxn1__C)
                  0c1e1934    00000004     app_pe66.oe66 (.const:ti_sysbios_knl_Swi_Module__loggerFxn4__C)
                  0c1e1938    00000004     app_pe66.oe66 (.const:ti_sysbios_knl_Swi_Module__loggerObj__C)
                  0c1e193c    00000004     app_pe66.oe66 (.const:ti_sysbios_knl_Swi_Object__count__C)
                  0c1e1940    00000004     app_pe66.oe66 (.const:ti_sysbios_knl_Task_A_badPriority__C)
                  0c1e1944    00000004     app_pe66.oe66 (.const:ti_sysbios_knl_Task_A_badTaskState__C)
                  0c1e1948    00000004     app_pe66.oe66 (.const:ti_sysbios_knl_Task_A_badThreadType__C)
                  0c1e194c    00000004     app_pe66.oe66 (.const:ti_sysbios_knl_Task_A_badTimeout__C)
                  0c1e1950    00000004     app_pe66.oe66 (.const:ti_sysbios_knl_Task_A_noPendElem__C)
                  0c1e1954    00000004     app_pe66.oe66 (.const:ti_sysbios_knl_Task_E_spOutOfBounds__C)
                  0c1e1958    00000004     app_pe66.oe66 (.const:ti_sysbios_knl_Task_E_stackOverflow__C)
                  0c1e195c    00000004     app_pe66.oe66 (.const:ti_sysbios_knl_Task_LD_block__C)
                  0c1e1960    00000004     app_pe66.oe66 (.const:ti_sysbios_knl_Task_LD_exit__C)
                  0c1e1964    00000004     app_pe66.oe66 (.const:ti_sysbios_knl_Task_LD_ready__C)
                  0c1e1968    00000004     app_pe66.oe66 (.const:ti_sysbios_knl_Task_LM_setPri__C)
                  0c1e196c    00000004     app_pe66.oe66 (.const:ti_sysbios_knl_Task_LM_sleep__C)
                  0c1e1970    00000004     app_pe66.oe66 (.const:ti_sysbios_knl_Task_LM_switch__C)
                  0c1e1974    00000004     app_pe66.oe66 (.const:ti_sysbios_knl_Task_Module_State_inactiveQ__O)
                  0c1e1978    00000004     app_pe66.oe66 (.const:ti_sysbios_knl_Task_Module_State_terminatedQ__O)
                  0c1e197c    00000004     app_pe66.oe66 (.const:ti_sysbios_knl_Task_Module__diagsEnabled__C)
                  0c1e1980    00000004     app_pe66.oe66 (.const:ti_sysbios_knl_Task_Module__diagsIncluded__C)
                  0c1e1984    00000004     app_pe66.oe66 (.const:ti_sysbios_knl_Task_Module__diagsMask__C)
                  0c1e1988    00000004     app_pe66.oe66 (.const:ti_sysbios_knl_Task_Module__loggerFxn2__C)
                  0c1e198c    00000004     app_pe66.oe66 (.const:ti_sysbios_knl_Task_Module__loggerFxn4__C)
                  0c1e1990    00000004     app_pe66.oe66 (.const:ti_sysbios_knl_Task_Module__loggerObj__C)
                  0c1e1994    00000004     app_pe66.oe66 (.const:ti_sysbios_knl_Task_Object__count__C)
                  0c1e1998    00000004     app_pe66.oe66 (.const:ti_sysbios_knl_Task_Object__heap__C)
                  0c1e199c    00000004     app_pe66.oe66 (.const:ti_sysbios_knl_Task_allBlockedFunc__C)
                  0c1e19a0    00000004     app_pe66.oe66 (.const:ti_sysbios_knl_Task_defaultStackHeap__C)
                  0c1e19a4    00000004     app_pe66.oe66 (.const:ti_sysbios_knl_Task_defaultStackSize__C)
                  0c1e19a8    00000004     app_pe66.oe66 (.const:ti_sysbios_knl_Task_numConstructedTasks__C)
                  0c1e19ac    00000004     app_pe66.oe66 (.const:ti_sysbios_knl_Task_numPriorities__C)
                  0c1e19b0    00000004     app_pe66.oe66 (.const:ti_sysbios_timers_timer64_Timer_A_notAvailable__C)
                  0c1e19b4    00000004     app_pe66.oe66 (.const:ti_sysbios_timers_timer64_Timer_E_cannotSupport__C)
                  0c1e19b8    00000004     app_pe66.oe66 (.const:ti_sysbios_timers_timer64_Timer_Module__diagsEnabled__C)
                  0c1e19bc    00000004     app_pe66.oe66 (.const:ti_sysbios_timers_timer64_Timer_Module__diagsIncluded__C)
                  0c1e19c0    00000004     app_pe66.oe66 (.const:ti_sysbios_timers_timer64_Timer_Module__diagsMask__C)
                  0c1e19c4    00000004     app_pe66.oe66 (.const:ti_sysbios_timers_timer64_Timer_anyMask__C)
                  0c1e19c8    00000004     app_pe66.oe66 (.const:ti_sysbios_timers_timer64_Timer_freqDivisor__C)
                  0c1e19cc    00000004     app_pe66.oe66 (.const:ti_sysbios_timers_timer64_Timer_numLocalTimers__C)
                  0c1e19d0    00000004     app_pe66.oe66 (.const:ti_sysbios_timers_timer64_Timer_numTimerDevices__C)
                  0c1e19d4    00000004     app_pe66.oe66 (.const:xdc_runtime_Assert_E_assertFailed__C)
                  0c1e19d8    00000004     app_pe66.oe66 (.const:xdc_runtime_Core_A_initializedParams__C)
                  0c1e19dc    00000004     app_pe66.oe66 (.const:xdc_runtime_Core_Module__diagsEnabled__C)
                  0c1e19e0    00000004     app_pe66.oe66 (.const:xdc_runtime_Core_Module__diagsIncluded__C)
                  0c1e19e4    00000004     app_pe66.oe66 (.const:xdc_runtime_Core_Module__diagsMask__C)
                  0c1e19e8    00000004     app_pe66.oe66 (.const:xdc_runtime_Error_E_generic__C)
                  0c1e19ec    00000004     app_pe66.oe66 (.const:xdc_runtime_Error_E_memory__C)
                  0c1e19f0    00000004     app_pe66.oe66 (.const:xdc_runtime_Error_Module__diagsEnabled__C)
                  0c1e19f4    00000004     app_pe66.oe66 (.const:xdc_runtime_Error_Module__diagsIncluded__C)
                  0c1e19f8    00000004     app_pe66.oe66 (.const:xdc_runtime_Error_Module__diagsMask__C)
                  0c1e19fc    00000004     app_pe66.oe66 (.const:xdc_runtime_Error_Module__loggerFxn8__C)
                  0c1e1a00    00000004     app_pe66.oe66 (.const:xdc_runtime_Error_Module__loggerObj__C)
                  0c1e1a04    00000004     app_pe66.oe66 (.const:xdc_runtime_Error_policy__C)
                  0c1e1a08    00000004     app_pe66.oe66 (.const:xdc_runtime_Error_raiseHook__C)
                  0c1e1a0c    00000004     app_pe66.oe66 (.const:xdc_runtime_IFilterLogger_Interface__BASE__C)
                  0c1e1a10    00000004     app_pe66.oe66 (.const:xdc_runtime_IGateProvider_Interface__BASE__C)
                  0c1e1a14    00000004     app_pe66.oe66 (.const:xdc_runtime_IHeap_Interface__BASE__C)
                  0c1e1a18    00000004     app_pe66.oe66 (.const:xdc_runtime_ILogger_Interface__BASE__C)
                  0c1e1a1c    00000004     app_pe66.oe66 (.const:xdc_runtime_IModule_Interface__BASE__C)
                  0c1e1a20    00000004     app_pe66.oe66 (.const:xdc_runtime_Log_L_error__C)
                  0c1e1a24    00000004     app_pe66.oe66 (.const:xdc_runtime_LoggerBuf_E_badLevel__C)
                  0c1e1a28    00000004     app_pe66.oe66 (.const:xdc_runtime_LoggerBuf_Module__gateObj__C)
                  0c1e1a2c    00000004     app_pe66.oe66 (.const:xdc_runtime_LoggerBuf_Object__count__C)
                  0c1e1a30    00000004     app_pe66.oe66 (.const:xdc_runtime_LoggerBuf_statusLogger__C)
                  0c1e1a34    00000004     app_pe66.oe66 (.const:xdc_runtime_Memory_defaultHeapInstance__C)
                  0c1e1a38    00000004     app_pe66.oe66 (.const:xdc_runtime_Startup_execImpl__C)
                  0c1e1a3c    00000004     app_pe66.oe66 (.const:xdc_runtime_Startup_maxPasses__C)
                  0c1e1a40    00000004     app_pe66.oe66 (.const:xdc_runtime_Startup_sfxnRts__C)
                  0c1e1a44    00000004     app_pe66.oe66 (.const:xdc_runtime_Startup_sfxnTab__C)
                  0c1e1a48    00000004     app_pe66.oe66 (.const:xdc_runtime_SysMin_bufSize__C)
                  0c1e1a4c    00000004     app_pe66.oe66 (.const:xdc_runtime_SysMin_outputFunc__C)
                  0c1e1a50    00000004     app_pe66.oe66 (.const:xdc_runtime_System_Module__gateObj__C)
                  0c1e1a54    00000004     app_pe66.oe66 (.const:xdc_runtime_System_extendFxn__C)
                  0c1e1a58    00000004     app_pe66.oe66 (.const:xdc_runtime_System_maxAtexitHandlers__C)
                  0c1e1a5c    00000004     app_pe66.oe66 (.const:xdc_runtime_Text_charTab__C)
                  0c1e1a60    00000004     app_pe66.oe66 (.const:xdc_runtime_Text_nameEmpty__C)
                  0c1e1a64    00000004     app_pe66.oe66 (.const:xdc_runtime_Text_nameStatic__C)
                  0c1e1a68    00000004     app_pe66.oe66 (.const:xdc_runtime_Text_nameUnknown__C)
                  0c1e1a6c    00000004     app_pe66.oe66 (.const:xdc_runtime_Text_nodeTab__C)
                  0c1e1a70    00000004     app_pe66.oe66 (.const:xdc_runtime_Text_visitRopeFxn__C)
                  0c1e1a74    00000002     app_pe66.oe66 (.const:ti_sysbios_BIOS_Module__id__C)
                  0c1e1a76    00000002     --HOLE-- [fill = 0]
                  0c1e1a78    00000002     app_pe66.oe66 (.const:ti_sysbios_family_c64p_EventCombiner_Module__id__C)
                  0c1e1a7a    00000002     --HOLE-- [fill = 0]
                  0c1e1a7c    00000002     app_pe66.oe66 (.const:ti_sysbios_family_c64p_Exception_Module__id__C)
                  0c1e1a7e    00000002     --HOLE-- [fill = 0]
                  0c1e1a80    00000002     app_pe66.oe66 (.const:ti_sysbios_family_c64p_Hwi_Module__id__C)
                  0c1e1a82    00000002     --HOLE-- [fill = 0]
                  0c1e1a84    00000002     app_pe66.oe66 (.const:ti_sysbios_family_c64p_Hwi_Module__loggerDefined__C)
                  0c1e1a86    00000002     --HOLE-- [fill = 0]
                  0c1e1a88    00000002     app_pe66.oe66 (.const:ti_sysbios_gates_GateMutex_Module__id__C)
                  0c1e1a8a    00000002     --HOLE-- [fill = 0]
                  0c1e1a8c    00000002     app_pe66.oe66 (.const:ti_sysbios_heaps_HeapMem_Module__id__C)
                  0c1e1a8e    00000002     --HOLE-- [fill = 0]
                  0c1e1a90    00000002     app_pe66.oe66 (.const:ti_sysbios_io_DEV_Module__id__C)
                  0c1e1a92    00000002     --HOLE-- [fill = 0]
                  0c1e1a94    00000002     app_pe66.oe66 (.const:ti_sysbios_knl_Clock_Module__id__C)
                  0c1e1a96    00000002     --HOLE-- [fill = 0]
                  0c1e1a98    00000002     app_pe66.oe66 (.const:ti_sysbios_knl_Clock_Module__loggerDefined__C)
                  0c1e1a9a    00000002     --HOLE-- [fill = 0]
                  0c1e1a9c    00000002     app_pe66.oe66 (.const:ti_sysbios_knl_Semaphore_Module__id__C)
                  0c1e1a9e    00000002     --HOLE-- [fill = 0]
                  0c1e1aa0    00000002     app_pe66.oe66 (.const:ti_sysbios_knl_Semaphore_Module__loggerDefined__C)
                  0c1e1aa2    00000002     --HOLE-- [fill = 0]
                  0c1e1aa4    00000002     app_pe66.oe66 (.const:ti_sysbios_knl_Swi_Module__id__C)
                  0c1e1aa6    00000002     --HOLE-- [fill = 0]
                  0c1e1aa8    00000002     app_pe66.oe66 (.const:ti_sysbios_knl_Swi_Module__loggerDefined__C)
                  0c1e1aaa    00000002     --HOLE-- [fill = 0]
                  0c1e1aac    00000002     app_pe66.oe66 (.const:ti_sysbios_knl_Task_Module__id__C)
                  0c1e1aae    00000002     --HOLE-- [fill = 0]
                  0c1e1ab0    00000002     app_pe66.oe66 (.const:ti_sysbios_knl_Task_Module__loggerDefined__C)
                  0c1e1ab2    00000002     --HOLE-- [fill = 0]
                  0c1e1ab4    00000002     app_pe66.oe66 (.const:ti_sysbios_knl_Task_deleteTerminatedTasks__C)
                  0c1e1ab6    00000002     --HOLE-- [fill = 0]
                  0c1e1ab8    00000002     app_pe66.oe66 (.const:ti_sysbios_knl_Task_initStackFlag__C)
                  0c1e1aba    00000002     --HOLE-- [fill = 0]
                  0c1e1abc    00000002     app_pe66.oe66 (.const:ti_sysbios_timers_timer64_Timer_Module__id__C)
                  0c1e1abe    00000002     --HOLE-- [fill = 0]
                  0c1e1ac0    00000002     app_pe66.oe66 (.const:ti_sysbios_timers_timer64_Timer_startupNeeded__C)
                  0c1e1ac2    00000002     --HOLE-- [fill = 0]
                  0c1e1ac4    00000002     app_pe66.oe66 (.const:xdc_runtime_Core_Module__id__C)
                  0c1e1ac6    00000002     --HOLE-- [fill = 0]
                  0c1e1ac8    00000002     app_pe66.oe66 (.const:xdc_runtime_Error_Module__loggerDefined__C)
                  0c1e1aca    00000002     --HOLE-- [fill = 0]
                  0c1e1acc    00000002     app_pe66.oe66 (.const:xdc_runtime_Error_maxDepth__C)
                  0c1e1ace    00000002     --HOLE-- [fill = 0]
                  0c1e1ad0    00000002     app_pe66.oe66 (.const:xdc_runtime_LoggerBuf_Module__id__C)
                  0c1e1ad2    00000002     --HOLE-- [fill = 0]
                  0c1e1ad4    00000002     app_pe66.oe66 (.const:xdc_runtime_LoggerBuf_filterByLevel__C)
                  0c1e1ad6    00000002     --HOLE-- [fill = 0]
                  0c1e1ad8    00000002     app_pe66.oe66 (.const:xdc_runtime_Memory_Module__id__C)
                  0c1e1ada    00000002     --HOLE-- [fill = 0]
                  0c1e1adc    00000002     app_pe66.oe66 (.const:xdc_runtime_SysMin_flushAtExit__C)
                  0c1e1ade    00000002     --HOLE-- [fill = 0]
                  0c1e1ae0    00000002     app_pe66.oe66 (.const:xdc_runtime_Text_charCnt__C)
                  0c1e1ae2    00000002     --HOLE-- [fill = 0]
                  0c1e1ae4    00000002     app_pe66.oe66 (.const:xdc_runtime_Text_isLoaded__C)
                  0c1e1ae6    00000002     --HOLE-- [fill = 0]
                  0c1e1ae8    00000002     app_pe66.oe66 (.const:xdc_runtime_Text_registryModsLastId__C)
                  0c1e1aea    00000002     --HOLE-- [fill = 0]
                  0c1e1aec    00000002     app_pe66.oe66 (.const:xdc_runtime_Text_unnamedModsLastId__C)

.fardata.1 
*          0    0c1e1af0    00000010     
                  0c1e1af0    00000010     ti.drv.qmss.ae66 : qmss_drv.oe66 (.fardata:Qmss_lowEoiVector)

.qmss      0    0c1e1b00    00002400     UNINITIALIZED
                  0c1e1b00    00002400     ti.drv.qmss.ae66 : qmss_drv.oe66 (.qmss)

.fardata.2 
*          0    0c1e3f00    000018ba     
                  0c1e3f00    00000608     app_pe66.oe66 (.fardata)
                  0c1e4508    000001e0     rts6600_elf.lib : defs.obj (.fardata:_ftable)
                  0c1e46e8    00000198     app_pe66.oe66 (.fardata:ti_sysbios_knl_Task_Object__table__V)
                  0c1e4880    00000180     app_pe66.oe66 (.fardata:ti_sysbios_timers_timer64_Timer_Module_State_0_device__A)
                  0c1e4a00    00000160     app_pe66.oe66 (.fardata:ti_sysbios_knl_Mailbox_Object__table__V)
                  0c1e4b60    00000120     resourcemgr.obj (.fardata:qmssGblCfgParams)
                  0c1e4c80    0000011c     c6678_2dsp_ddr3_vpx_lib.lib : qmss_drv.obj (.fardata:Radar_qmssGblCfgParams)
                  0c1e4d9c    00000004     rts6600_elf.lib : defs.obj (.fardata)
                  0c1e4da0    00000100     app_pe66.oe66 (.fardata:ti_sysbios_knl_Task_Module_State_0_readyQ__A)
                  0c1e4ea0    000000b4     stk.ae66 : exec.oe66 (.fardata)
                  0c1e4f54    00000004     rts6600_elf.lib : dtor_list.obj (.fardata)
                  0c1e4f58    000000a0                     : lowlev.obj (.fardata:_stream)
                  0c1e4ff8    00000090     app_pe66.oe66 (.fardata:ti_sysbios_family_c64p_Hwi_Object__table__V)
                  0c1e5088    00000080     app_pe66.oe66 (.fardata:ti_sysbios_knl_Swi_Module_State_0_readyQ__A)
                  0c1e5108    00000080     app_pe66.oe66 (.fardata:ti_sysbios_timers_timer64_Timer_Module_State_0_gctrl__A)
                  0c1e5188    00000080     app_pe66.oe66 (.fardata:ti_sysbios_timers_timer64_Timer_Module_State_0_handles__A)
                  0c1e5208    00000080     app_pe66.oe66 (.fardata:ti_sysbios_timers_timer64_Timer_Module_State_0_intFreqs__A)
                  0c1e5288    00000078     rts6600_elf.lib : lowlev.obj (.fardata:_device)
                  0c1e5300    00000078     resourcemgr.obj (.fardata:cppiGblCfgParams)
                  0c1e5378    00000008     ti.transport.ndk.nimu.ae66 : nimu_eth.obj (.fardata:NIMUDeviceTable)
                  0c1e5380    0000004d     nettool_ipv4.ae66 : dhcptags.oe66 (.fardata:DHCPTypeCode)
                  0c1e53cd    00000003     --HOLE--
                  0c1e53d0    0000004c     app_pe66.oe66 (.fardata:ti_sysbios_timers_timer64_Timer_Object__table__V)
                  0c1e541c    00000004     ti.drv.cppi.ae66 : cppi_drv.oe66 (.fardata)
                  0c1e5420    00000040     netctrl_min_ipv4.ae66 : netsrv.oe66 (.fardata:CloseOrder)
                  0c1e5460    00000040                           : netsrv.oe66 (.fardata:OpenOrder)
                  0c1e54a0    00000040     rts6600_elf.lib : cos.obj (.fardata:R$1)
                  0c1e54e0    00000040                     : sin.obj (.fardata:R$1)
                  0c1e5520    00000040     main.obj (.fardata:Raco_Vec_C6678_Licence)
                  0c1e5560    00000040     app_pe66.oe66 (.fardata:ti_sysbios_gates_GateMutex_Object__table__V)
                  0c1e55a0    00000034     stk.ae66 : tcptime.oe66 (.fardata:tcp_backoff)
                  0c1e55d4    0000000c     rts6600_elf.lib : exit.obj (.fardata)
                  0c1e55e0    00000030     stk.ae66 : exec.oe66 (.fardata:tasks)
                  0c1e5610    00000030     app_pe66.oe66 (.fardata:ti_sysbios_knl_Swi_Object__table__V)
                  0c1e5640    00000028     app_pe66.oe66 (.fardata:ti_sysbios_heaps_HeapMem_Object__table__V)
                  0c1e5668    00000024     os.ae66 : ossys.oe66 (.fardata)
                  0c1e568c    00000004     ti.drv.pa.ae66 : painit.oe66 (.fardata)
                  0c1e5690    00000024     app_pe66.oe66 (.fardata:xdc_runtime_LoggerBuf_Object__table__V)
                  0c1e56b4    00000004     --HOLE--
                  0c1e56b8    00000020     ti.drv.qmss.ae66 : qmss_drv.oe66 (.fardata:Qmss_highEoiVector)
                  0c1e56d8    00000020     c6678_2dsp_ddr3_vpx_lib.lib : qmss_drv.obj (.fardata:Radar_Qmss_highEoiVector)
                  0c1e56f8    00000008     rts6600_elf.lib : _lock.obj (.fardata)
                  0c1e5700    00000020     stk.ae66 : rtc.oe66 (.fardata:pstrMsgName)
                  0c1e5720    00000020     app_pe66.oe66 (.fardata:ti_sysbios_io_DEV_Module_State_0_table__A)
                  0c1e5740    00000014     stk.ae66 : sockpcb.oe66 (.fardata:pSockList)
                  0c1e5754    00000004     --HOLE--
                  0c1e5758    00000010     c6678_2dsp_ddr3_vpx_lib.lib : qmss_drv.obj (.fardata:Radar_Qmss_lowEoiVector)
                  0c1e5768    00000010     app_pe66.oe66 (.fardata:ti_sysbios_hal_Hwi_Object__table__V)
                  0c1e5778    00000010     app_pe66.oe66 (.fardata:xdc_runtime_System_Module_State_0_atexitHandlers__A)
                  0c1e5788    00000008     app_pe66.oe66 (.fardata:ti_sysbios_hal_Timer_Object__table__V)
                  0c1e5790    0000000b     stk.ae66 : tcpout.oe66 (.fardata:tcp_outflags)
                  0c1e579b    00000005     --HOLE--
                  0c1e57a0    00000006              : lliout.oe66 (.fardata:bEtherBCast)
                  0c1e57a6    00000002     --HOLE--
                  0c1e57a8    00000004     app_pe66.oe66 (.fardata:ti_sysbios_gates_GateHwi_Object__table__V)
                  0c1e57ac    00000004     --HOLE--
                  0c1e57b0    00000002     ti.drv.qmss.ae66 : qmss_drv.oe66 (.fardata:Qmss_cdmaEoiVector)
                  0c1e57b2    00000006     --HOLE--
                  0c1e57b8    00000002     c6678_2dsp_ddr3_vpx_lib.lib : qmss_drv.obj (.fardata:Radar_Qmss_cdmaEoiVector)

platform_lib 
*          0    0c1e57c0    00001370     
                  0c1e57c0    00001058     ti.platform.evm6678l.ae66 : platform.obj (platform_lib:uninit) [fill = 0]
                  0c1e6818    00000210                               : evm66x_nand.obj (platform_lib) [fill = 0]
                  0c1e6a28    00000108                               : platform.obj (platform_lib:init)

.far:NDK_OBJMEM 
*          0    0c1e6b30    00001000     UNINITIALIZED
                  0c1e6b30    00000a00     miniPrintf.ae66 : miniPrintf.oe66 (.far:NDK_OBJMEM)
                  0c1e7530    00000600     os.ae66 : ossys.oe66 (.far:NDK_OBJMEM)

.switch.1 
*          0    0c1e7b30    000000c8     
                  0c1e7b30    00000070     ti.csl.ae66 : csl_chip.oe66 (.switch:CSL_chipReadReg)
                  0c1e7ba0    00000058     miniPrintf.ae66 : miniPrintf.oe66 (.switch:_parsearg)

.vecs      0    0c1e7c00    00000200     
                  0c1e7c00    00000200     app_pe66.oe66 (.vecs)

.switch.2 
*          0    0c1e7e00    00000260     
                  0c1e7e00    00000040     c6678_2dsp_ddr3_vpx_lib.lib : srio_drv.obj (.switch:C6678_Srio_DoorbellInt_Clear)
                  0c1e7e40    00000040                                 : srio_drv.obj (.switch:C6678_Srio_DoorbellInt_Info)
                  0c1e7e80    0000003c     stk.ae66 : sock.oe66 (.switch:SockSet)
                  0c1e7ebc    00000038              : icmpin.oe66 (.switch:ICMPInput)
                  0c1e7ef4    00000034              : rawethsock.oe66 (.switch:RawEthSockSet)
                  0c1e7f28    0000002c     ti.drv.pa.ae66 : pa.oe66 (.switch:pa_conv_routing_info)
                  0c1e7f54    00000028     miniPrintf.ae66 : miniPrintf.oe66 (.switch:_int2str)
                  0c1e7f7c    00000020     stk.ae66 : tcpprot.oe66 (.switch:TcpPrSetOption)
                  0c1e7f9c    0000001c     ti.csl.intc.ae66 : csl_intcHwControl.oe66 (.switch:CSL_intcHwControl)
                  0c1e7fb8    0000001c     stk.ae66 : sockint.oe66 (.switch:SockNotify)
                  0c1e7fd4    0000001c     nettool_ipv4.ae66 : dhcpsm.oe66 (.switch:dhcpState)
                  0c1e7ff0    0000001c     ti.platform.evm6678l.ae66 : platform.obj (.switch:platform_internal_memory_test)
                  0c1e800c    00000014     stk.ae66 : nimu.oe66 (.switch:NIMUIoctl)
                  0c1e8020    00000010     c6678_2dsp_ddr3_vpx_lib.lib : intc.obj (.switch:C6678_ChipInt_Manual_trigger)
                  0c1e8030    00000010     ti.csl.ae66 : csl_cpIntcGetBaseAddress.oe66 (.switch:CSL_CPINTC_open)
                  0c1e8040    00000010     ti.csl.intc.ae66 : csl_intcOpen.oe66 (.switch:CSL_intcOpen)
                  0c1e8050    00000010     nettool_ipv4.ae66 : inetaddr.oe66 (.switch:inet_aton)

.cppi      0    0c1e8080    00000200     UNINITIALIZED
                  0c1e8080    00000200     ti.drv.cppi.ae66 : cppi_drv.oe66 (.cppi)

.bss       0    0c1e8280    000000b0     
                  0c1e8280    0000004c     ti.csl.intc.ae66 : _csl_intcResource.oe66 (.bss:csl_section:intc:uninit) [fill = 0]
                  0c1e82cc    00000018     hal_timer_bios.ae66 : lltimer.oe66 (.bss) [fill = 0]
                  0c1e82e4    00000014     stk.ae66 : igmp.oe66 (.bss) [fill = 0]
                  0c1e82f8    0000000c     ti.transport.ndk.nimu.ae66 : nimu_eth.obj (.bss) [fill = 0]
                  0c1e8304    00000008     ti.csl.intc.ae66 : _csl_intcResource.oe66 (.bss:csl_section:intc:init)
                  0c1e830c    00000008     netctrl_min_ipv4.ae66 : netctrl.oe66 (.bss) [fill = 0]
                  0c1e8314    00000008     stk.ae66 : ip.oe66 (.bss) [fill = 0]
                  0c1e831c    00000004     NetworkRecv.obj (.bss) [fill = 0]
                  0c1e8320    00000004     nettool_ipv4.ae66 : daemon.oe66 (.bss) [fill = 0]
                  0c1e8324    00000004                       : ipaddr.oe66 (.bss) [fill = 0]
                  0c1e8328    00000004     stk.ae66 : rtable.oe66 (.bss) [fill = 0]
                  0c1e832c    00000004     ti.platform.evm6678l.ae66 : evmc66x_spi.obj (.bss) [fill = 0]

.neardata 
*          0    0c1e8330    00000121     
                  0c1e8330    00000024     os.ae66 : mem.oe66 (.neardata)
                  0c1e8354    00000018     netctrl_min_ipv4.ae66 : netctrl.oe66 (.neardata)
                  0c1e836c    00000018     os.ae66 : task.oe66 (.neardata)
                  0c1e8384    00000014     app_pe66.oe66 (.neardata)
                  0c1e8398    00000014     stk.ae66 : rtable.oe66 (.neardata)
                  0c1e83ac    00000010              : igmp.oe66 (.neardata)
                  0c1e83bc    00000008     GlobalVar.obj (.neardata)
                  0c1e83c4    00000008     hookfunc.obj (.neardata)
                  0c1e83cc    00000008     miniPrintf.ae66 : miniPrintf.oe66 (.neardata)
                  0c1e83d4    00000008     nettool_ipv4.ae66 : daemon.oe66 (.neardata)
                  0c1e83dc    00000008     os.ae66 : ossys.oe66 (.neardata)
                  0c1e83e4    00000008     stk.ae66 : exec.oe66 (.neardata)
                  0c1e83ec    00000008              : icmp.oe66 (.neardata)
                  0c1e83f4    00000008              : ip.oe66 (.neardata)
                  0c1e83fc    00000008              : ipin.oe66 (.neardata)
                  0c1e8404    00000008              : lli.oe66 (.neardata)
                  0c1e840c    00000008              : rtc.oe66 (.neardata)
                  0c1e8414    00000008              : tcp.oe66 (.neardata)
                  0c1e841c    00000008              : timer.oe66 (.neardata)
                  0c1e8424    00000008     ti.platform.evm6678l.ae66 : platform.obj (.neardata)
                  0c1e842c    00000004     hal_timer_bios.ae66 : lltimer.oe66 (.neardata)
                  0c1e8430    00000004     netctrl_min_ipv4.ae66 : netsrv.oe66 (.neardata)
                  0c1e8434    00000004     nettool_ipv4.ae66 : config.oe66 (.neardata)
                  0c1e8438    00000004     stk.ae66 : bind.oe66 (.neardata)
                  0c1e843c    00000004              : ipfrag.oe66 (.neardata)
                  0c1e8440    00000004              : node.oe66 (.neardata)
                  0c1e8444    00000004              : pbm.oe66 (.neardata)
                  0c1e8448    00000004              : sockpcb.oe66 (.neardata)
                  0c1e844c    00000002     ti.transport.ndk.nimu.ae66 : nimu_eth.obj (.neardata)
                  0c1e844e    00000002     --HOLE-- [fill = 0]
                  0c1e8450    00000001     ti.drv.qmss.ae66 : qmss_drv.oe66 (.neardata)

.rodata    0    0c1e8454    00000040     
                  0c1e8454    00000040     app_pe66.oe66 (.rodata)

.racovec   0    0c1e84a0    000001c0     
                  0c1e84a0    000001c0     Raco_Vec_C6678.lib : Raco_Vec_C6678_SYN_MultiCore.obj (.text:Raco_Vec_C6678_Text)

.cio       0    0c1e8660    00000120     UNINITIALIZED
                  0c1e8660    00000120     rts6600_elf.lib : trgmsg.obj (.cio)

.cinit     0    0c1e8780    00001498     
                  0c1e8780    0000111c     (.cinit..fardata.2.load) [load image, compression = rle]
                  0c1e989c    0000009f     (.cinit.platform_lib.load) [load image, compression = rle]
                  0c1e993b    00000001     --HOLE-- [fill = 0]
                  0c1e993c    00000075     (.cinit..cppiSharedMem.load) [load image, compression = rle]
                  0c1e99b1    00000003     --HOLE-- [fill = 0]
                  0c1e99b4    00000044     (.cinit..rodata.load) [load image, compression = rle]
                  0c1e99f8    00000037     (.cinit..neardata.load) [load image, compression = rle]
                  0c1e9a2f    00000001     --HOLE-- [fill = 0]
                  0c1e9a30    00000029     (.cinit..far.load) [load image, compression = rle]
                  0c1e9a59    00000003     --HOLE-- [fill = 0]
                  0c1e9a5c    00000016     (.cinit..fardata.1.load) [load image, compression = rle]
                  0c1e9a72    00000002     --HOLE-- [fill = 0]
                  0c1e9a74    0000000d     (.cinit..L2.load) [load image, compression = rle]
                  0c1e9a81    00000003     --HOLE-- [fill = 0]
                  0c1e9a84    0000000c     (__TI_handler_table)
                  0c1e9a90    0000000b     (.cinit..CoreIntcL2Mem.load) [load image, compression = rle]
                  0c1e9a9b    00000001     --HOLE-- [fill = 0]
                  0c1e9a9c    0000000b     (.cinit..nimu_eth_ll2.load) [load image, compression = rle]
                  0c1e9aa7    00000001     --HOLE-- [fill = 0]
                  0c1e9aa8    0000000b     (.cinit..qmssL2Mem.load) [load image, compression = rle]
                  0c1e9ab3    00000001     --HOLE-- [fill = 0]
                  0c1e9ab4    0000000b     (.cinit..srioSharedMem.load) [load image, compression = rle]
                  0c1e9abf    00000001     --HOLE-- [fill = 0]
                  0c1e9ac0    00000009     (.cinit..Raco_Vec_C6678_L2.load) [load image, compression = rle]
                  0c1e9ac9    00000003     --HOLE-- [fill = 0]
                  0c1e9acc    00000009     (.cinit..bss.load) [load image, compression = rle]
                  0c1e9ad5    00000003     --HOLE-- [fill = 0]
                  0c1e9ad8    00000008     (.cinit..ChipIntc.load) [load image, compression = zero_init]
                  0c1e9ae0    00000008     (.cinit..L3.load) [load image, compression = zero_init]
                  0c1e9ae8    00000008     (.cinit..TI.bound:Srio_Recv_L3.load) [load image, compression = zero_init]
                  0c1e9af0    00000008     (.cinit..cppi.load) [load image, compression = zero_init]
                  0c1e9af8    00000008     (.cinit..far:NDK_OBJMEM.load) [load image, compression = zero_init]
                  0c1e9b00    00000008     (.cinit..far:NDK_PACKETMEM.load) [load image, compression = zero_init]
                  0c1e9b08    00000008     (.cinit..far:taskStackSection.load) [load image, compression = zero_init]
                  0c1e9b10    00000008     (.cinit..qmss.load) [load image, compression = zero_init]
                  0c1e9b18    00000008     (.cinit..qmssSharedMem.load) [load image, compression = zero_init]
                  0c1e9b20    00000008     (.cinit..resmgr_handles.load) [load image, compression = zero_init]
                  0c1e9b28    00000008     (.cinit..resmgr_memregion.load) [load image, compression = zero_init]
                  0c1e9b30    00000008     (.cinit..resmgr_pa.load) [load image, compression = zero_init]
                  0c1e9b38    00000008     (.cinit.systemHeap.load) [load image, compression = zero_init]
                  0c1e9b40    000000d8     (__TI_cinit_table)

systemHeap 
*          0    80000000    00300000     UNINITIALIZED
                  80000000    00300000     app_pe66.oe66 (systemHeap)


LINKER GENERATED COPY TABLES

__TI_cinit_table @ 0c1e9b40 records: 27, size/record: 8, table size: 216
	.fardata.2: load addr=0c1e8780, load size=0000111c bytes, run addr=0c1e3f00, run size=000018ba bytes, compression=rle
	platform_lib: load addr=0c1e989c, load size=0000009f bytes, run addr=0c1e57c0, run size=00001370 bytes, compression=rle
	.cppiSharedMem: load addr=0c1e993c, load size=00000075 bytes, run addr=0c1cf880, run size=00001c00 bytes, compression=rle
	.rodata: load addr=0c1e99b4, load size=00000044 bytes, run addr=0c1e8454, run size=00000040 bytes, compression=rle
	.neardata: load addr=0c1e99f8, load size=00000037 bytes, run addr=0c1e8330, run size=00000121 bytes, compression=rle
	.far: load addr=0c1e9a30, load size=00000029 bytes, run addr=0c134140, run size=0004d784 bytes, compression=rle
	.fardata.1: load addr=0c1e9a5c, load size=00000016 bytes, run addr=0c1e1af0, run size=00000010 bytes, compression=rle
	.L2: load addr=0c1e9a74, load size=0000000d bytes, run addr=00800000, run size=00020028 bytes, compression=rle
	.CoreIntcL2Mem: load addr=0c1e9a90, load size=0000000b bytes, run addr=0082f4a8, run size=000001a4 bytes, compression=rle
	.nimu_eth_ll2: load addr=0c1e9a9c, load size=0000000b bytes, run addr=0082f680, run size=00000318 bytes, compression=rle
	.qmssL2Mem: load addr=0c1e9aa8, load size=0000000b bytes, run addr=0082ed80, run size=00000721 bytes, compression=rle
	.srioSharedMem: load addr=0c1e9ab4, load size=0000000b bytes, run addr=0c1d1500, run size=00007004 bytes, compression=rle
	.Raco_Vec_C6678_L2: load addr=0c1e9ac0, load size=00000009 bytes, run addr=00827828, run size=0000000c bytes, compression=rle
	.bss: load addr=0c1e9acc, load size=00000009 bytes, run addr=0c1e8280, run size=000000b0 bytes, compression=rle
	.ChipIntc: load addr=0c1e9ad8, load size=00000008 bytes, run addr=0c1d8580, run size=00000010 bytes, compression=zero_init
	.L3: load addr=0c1e9ae0, load size=00000008 bytes, run addr=0c0700c0, run size=00083840 bytes, compression=zero_init
	.TI.bound:Srio_Recv_L3: load addr=0c1e9ae8, load size=00000008 bytes, run addr=0c010000, run size=000600c0 bytes, compression=zero_init
	.cppi: load addr=0c1e9af0, load size=00000008 bytes, run addr=0c1e8080, run size=00000200 bytes, compression=zero_init
	.far:NDK_OBJMEM: load addr=0c1e9af8, load size=00000008 bytes, run addr=0c1e6b30, run size=00001000 bytes, compression=zero_init
	.far:NDK_PACKETMEM: load addr=0c1e9b00, load size=00000008 bytes, run addr=0c181900, run size=0004b900 bytes, compression=zero_init
	.far:taskStackSection: load addr=0c1e9b08, load size=00000008 bytes, run addr=00820028, run size=00007800 bytes, compression=zero_init
	.qmss: load addr=0c1e9b10, load size=00000008 bytes, run addr=0c1e1b00, run size=00002400 bytes, compression=zero_init
	.qmssSharedMem: load addr=0c1e9b18, load size=00000008 bytes, run addr=0c1cd400, run size=00002420 bytes, compression=zero_init
	.resmgr_handles: load addr=0c1e9b20, load size=00000008 bytes, run addr=0082f9a0, run size=000000a0 bytes, compression=zero_init
	.resmgr_memregion: load addr=0c1e9b28, load size=00000008 bytes, run addr=00827880, run size=00004000 bytes, compression=zero_init
	.resmgr_pa: load addr=0c1e9b30, load size=00000008 bytes, run addr=0082d880, run size=00001488 bytes, compression=zero_init
	systemHeap: load addr=0c1e9b38, load size=00000008 bytes, run addr=80000000, run size=00300000 bytes, compression=zero_init


LINKER GENERATED HANDLER TABLE

__TI_handler_table @ 0c1e9a84 records: 3, size/record: 4, table size: 12
	index: 0, handler: __TI_decompress_rle24
	index: 1, handler: __TI_decompress_none
	index: 2, handler: __TI_zero_init


SEGMENT ATTRIBUTES

    id tag       seg value
    -- ---       --- -----
     0 PHA_BOUND 8        


GLOBAL SYMBOLS: SORTED ALPHABETICALLY BY Name 

address    name
--------   ----
0c0f4698   Add_MACAddress
0c130080   BindFindByHost
0c1300e0   BindFindByIF
0c130140   BindFindByNet
0c122ee0   BindFree
0c132da0   BindGetFirst
0c132dc0   BindGetIF
0c1301a0   BindGetIFByDBCast
0c131b20   BindGetIP
0c132de0   BindGetNext
0c130200   BindIF2IPHost
0c132e00   BindIFNet2IPHost
0c132e20   BindIPHost2IF
0c111740   BindNew
0c181640   BlockCount
0c181620   BlockMax
0c133520   C$$EXIT
0c131878   C$$IO$$
0c10192c   C6678_ChipInt_Clear
0c10180c   C6678_ChipInt_Init
0c101958   C6678_ChipInt_Manual_trigger
0c1018a8   C6678_ChipInt_Set
0c101f70   C6678_ConfigSerdes
0c1017ac   C6678_CoreInt_Clear
0c1017d4   C6678_CoreInt_Close
0c101654   C6678_CoreInt_Init
0c1017c0   C6678_CoreInt_Manual_trigger
0c1016d8   C6678_CoreInt_Set
0c00c348   C6678_Cppi_init
0c009a50   C6678_Ddr3_Init
0c009bb8   C6678_Ddr3_MapSelect
0c1083cc   C6678_Ecc_Enable
0c10e0c0   C6678_Emif16_Fpga_Init
0c10e0e8   C6678_Emif16_Fpga_ReadByte
0c10e168   C6678_Emif16_Fpga_WriteByte
0c1020c8   C6678_Init_SGMII
0c10204c   C6678_Init_SGMII_Auto
0c101fec   C6678_Init_SGMII_Force
0c101ab0   C6678_Int_GlobalDisable
0c101acc   C6678_Int_GlobalEnable
0c101a64   C6678_Int_RestoreInterrputRegInfo
0c1019ec   C6678_Int_SaveInterrputRegInfo
0c0ff6e4   C6678_Pll_Delay
0c0ff648   C6678_Pll_Init
0c10836c   C6678_Power_UpDomains
0c005484   C6678_QMSS_Core_MemInsert
0c0053c8   C6678_Qmss_Init
0c107e28   C6678_Sem2_Acquire
0c107f48   C6678_Sem2_GetSatus
0c107f60   C6678_Sem2_IntcStatusClear
0c107fe8   C6678_Sem2_MultiCore_Syn
0c107ee8   C6678_Sem2_Release
0c004108   C6678_Srio_Bind
0c002fb4   C6678_Srio_Close
0c003338   C6678_Srio_Dio_Doorbell
0c002fd0   C6678_Srio_Dio_Read
0c0041d4   C6678_Srio_Dio_ReadandDoorbell
0c003144   C6678_Srio_Dio_Write
0c004358   C6678_Srio_Dio_WriteandDoorbell
0c0038f0   C6678_Srio_DoorbellInt_Clear
0c003680   C6678_Srio_DoorbellInt_Hookup
0c0036b0   C6678_Srio_DoorbellInt_Info
0c002f24   C6678_Srio_Init
0c003484   C6678_Srio_Maitain_Read
0c003580   C6678_Srio_Maitain_Write
0c0040d8   C6678_Srio_Navigator_Init
0c003c90   C6678_Srio_Over_Hookup
0c003da0   C6678_Srio_Over_Int_Clear
0c004034   C6678_Srio_Type11_Recv
0c003f54   C6678_Srio_Type11_Send
0c004560   C6678_Srio_Type9Type11_rxCompletionIsr
0c003dd0   C6678_Srio_Type9_Recv
0c003e84   C6678_Srio_Type9_Send
0c003d08   C6678_Srio_Wait_Over
0c1290ec   C6678_TimeCounter_Delaycycles
0c129090   C6678_TimeCounter_Enable
0c1290a4   C6678_TimeCounter_GetHighVal
0c1290c8   C6678_TimeCounter_GetLowVal
0c1083e0   C6678_XMC_MapSelect
0c108364   C6678_XMC_PrefetchBuffer_Inv
0c130260   CSL_CPINTC_open
0c132e40   CSL_SRIO_Open
0c120aa0   CSL_chipReadReg
0c12d040   CSL_intcClose
0c122098   CSL_intcGlobalDisable
0c122078   CSL_intcGlobalEnable
0c12210c   CSL_intcGlobalExcepClear
0c1220e4   CSL_intcGlobalExcepEnable
0c1220f8   CSL_intcGlobalExtExcepEnable
0c1220d0   CSL_intcGlobalNmiEnable
0c1220b8   CSL_intcGlobalRestore
0c133700   CSL_intcHookIsr
0c10a960   CSL_intcHwControl
0c121ea0   CSL_intcInit
0c122030   CSL_intcInterruptClear
0c122010   CSL_intcInterruptDisable
0c121ff0   CSL_intcInterruptEnable
0c12204c   CSL_intcInterruptRestore
0c122040   CSL_intcInterruptSet
0c1179a0   CSL_intcOpen
0c12b0c0   CSL_intcPlugEventHandler
0c122064   CSL_intcQueryInterruptStatus
0c133740   CSL_tscEnable
0c133748   CSL_tscRead
0c10f640   CfgAddEntry
0c12b9c0   CfgEntryDeRef
0c12ba60   CfgEntryGetData
0c1302c0   CfgEntryInfo
0c11afe0   CfgExecute
0c123000   CfgFree
0c11f760   CfgGetEntry
0c127460   CfgGetEntryCnt
0c12bb00   CfgGetImmediate
0c11f8c0   CfgGetNextEntry
0c125760   CfgNew
0c11cbe0   CfgRemoveEntry
0c132e60   CfgSetDefault
0c125860   CfgSetExecuteOrder
0c130320   CfgSetService
0c120a24   CloseSocket
0c1e10c0   Code2Err
0c10e5d4   CommandToFPGA
0c10e560   ConfigFPGA
0c0f70e0   Convert_CoreLocal2GlobalAddr
0c105cb4   CopyHeadInfo
0c0fd3ac   CorePllcGetHwSetup
0c0fd174   CorePllcHwSetup
0c11b1a0   Cppi_channelClose
0c12bba0   Cppi_channelEnable
0c102180   Cppi_configureRxFlow
0c132e80   Cppi_init
0c11b360   Cppi_initCfg
0c109a60   Cppi_initDescriptor
0c1153c0   Cppi_open
0c1089e0   Cppi_rxChannelOpen
0c12de00   Cppi_setCpdmaLoopback
0c106580   Cppi_txChannelOpen
0c120940   CreateSocket
0c0fcf30   DDR3Init
0c00aeb4   DDR3Init1000m
0c00bcc4   DDR3Init1000m_1600
0c00b2d8   DDR3Init1000m_C6678_4DSP_DDR3_VPX_v2_0
0c00a178   DDR3Init600m_C6678_4DSP_DDR3_VPX_v2_0
0c00a5e0   DDR3Init700m_C6678_4DSP_DDR3_VPX_v2_0
0c009d98   DDR3Init800m
0c00b8d4   DDR3Init800m_1600
0c00aa54   DDR3Init800m_C6678_4DSP_DDR3_VPX_v2_0
0c127540   DHCPClose
0c112c80   DHCPOpen
0c0fde40   DSPF_sp_ifftSPxSP
0c118dc0   DSPInit
0c123120   DaemonFree
0c11fa20   DbgPrintf
0c1e83e0   DebugCritError
0c1e7530   DebugLog
0c1e83dc   DebugLogSize
0c10e3d4   DegreeSplit
0c1e8394   DomainName
00820008   Echo_Procd_Index
0082000c   Echo_Send_Index
0c0f4e78   EmacRxPktISR
0c10e200   Emif16FpgaConfig
0c10e1e8   Emif16FpgaOpenDevice
0082f4a8   EventHandler
0082f640   EventRecord
0c131b60   ExecClose
0c132ea0   ExecHRef
0c132ec0   ExecLowResource
0c125960   ExecOpen
0c131ba0   ExecTimer
0c12bc40   FdSignalEvent
0c123240   FdWaitEvent
0c1e8390   GatewayIP
0c12bce0   HOSTclose
0c125a60   HOSTlseek
0c127620   HOSTopen
0c129bc0   HOSTread
0c11cd80   HOSTrename
0c129c80   HOSTunlink
0c129d40   HOSTwrite
0c10e2c0   HostCmdResponse
0c12df00   ICMPChecksum
0c112f00   ICMPGenPacket
0c104c00   ICMPInput
0c120be0   ICMPSendRtAdv
00800000   IFFT_Echo_L2
0c10ca80   IGMPInput
0c120d20   IGMPJoin
0c127700   IGMPLeave
0c123360   IGMPLeaveHostGroup
0c11df60   IGMPMsg
0c1303e0   IGMPTestGroup
0c130440   IPChecksum
0c11b520   IPGetRoute
0c123480   IPMsg
0c103ac0   IPReasm
0c12bd80   IPReasmFree
0c12be20   IPReasmTimeout
0c132ee0   IPRtChange
0c0faa80   IPRxPacket
0c00f660   IPTxPacket
0c0f4464   Init_Cpsw
0c0f4330   Init_MAC
0c0f432c   Init_MDIO
0c0f42e4   Init_PASS
0c10fdf0   Init_SGMII
0c0f4208   Init_Switch
00820004   IsEchoDataReady
0c1d3320   IsQmssInit
0c132f00   LED_TOGGLE
0c1304a0   LLIFree
0c11b6e0   LLIGenArpPacket
0c129e00   LLIGetValidTime
0c129ec0   LLIMsg
0c120e60   LLINew
0c106a40   LLIRxPacket
0c10dc00   LLITxIpPacket
0c12bec0   LLIValidateRoute
00827828   LocalFlag
0c1e8388   LocalIPAddr
0c1e838c   LocalIPMask
00820010   LocalSynFlagx
0c1d151c   MemoryPtrcount
0c131be0   NC_BootComplete
0c132f20   NC_IPUpdate
0c11d0c0   NC_NetStart
0c132f40   NC_NetStop
0c12df80   NC_SystemClose
0c1236c0   NC_SystemOpen
0c131c20   NDK_hookCreate
0c132f60   NDK_hookInit
0c1237e0   NIMUAddEthernetHeader
0c130500   NIMUAddHeader
0c130560   NIMUCreatePacket
0c1e5378   NIMUDeviceTable
0c1305c0   NIMUFindByIndex
0c129f80   NIMUFindByName
0c132f80   NIMUGetRsvdSizeInfo
0c12e000   NIMUInit
0c10b860   NIMUIoctl
0c130620   NIMUPacketService
0c130680   NIMUPacketServiceCheck
0c118ec0   NIMUReceivePacket
0c11e0e0   NIMURegister
0c1306e0   NIMUSendPacket
0c132fa0   NIMUSetRsvdSizeInfo
0c12bf60   NIMUShutdown
0c12c000   NIMUUnregister
0c12a040   NS_BootTask
0c130740   NS_PreBoot
0c0fc064   NandGetDetails
0c0fb690   NandReadSpareArea
0c0fb750   NandWriteDataBytes
0c0fbf88   NandWriteSpareArea
0c132fc0   NatMsg
0c180988   NetRecvBuf
0c0700c0   NetSendFrames_L3
0c120a70   NetworkCloseHookFunc
0c120a44   NetworkOpenHookFunc
0c123900   NetworkRecv
0c1307a0   NetworkSend
0c111cc0   NodeAdd
0c1279a0   NodeDeRef
0c120fa0   NodeFind
0c132fe0   NodeGetRt
0c133000   NodeSetRt
0c11d260   NodeTreeFree
0c127b60   NodeTreeNew
0c1210e0   NodeWalk
0c133020   NotifyLowResource
0c12c0a0   NtAddNetwork
0c12a1c0   NtIfIdx2Ip
0c131c60   NtRemoveNetwork
0c133040   OEMCacheClean
0c133060   OEMSysCritOff
0c133080   OEMSysCritOn
0c004874   Osal_CacheInvalidate
0c0048a4   Osal_CacheWriteback
0c0047b4   Osal_DataBufferFree
0c0046c0   Osal_DataBufferMalloc
0c110a64   Osal_cppiBeginMemAccess
0c1109d4   Osal_cppiCsEnter
0c1109f0   Osal_cppiCsExit
0c110a74   Osal_cppiEndMemAccess
0c110a38   Osal_cppiFree
0c110a00   Osal_cppiMalloc
0c0045c0   Osal_dataBufferInitMemory
0c1109ac   Osal_nimuFree
0c110978   Osal_nimuMalloc
0c110b48   Osal_paBeginMemAccess
0c110b58   Osal_paEndMemAccess
0c110b6c   Osal_paMtCsEnter
0c110b80   Osal_paMtCsExit
0c110928   Osal_platformFree
0c1108f4   Osal_platformMalloc
0c110950   Osal_platformSpiCsEnter
0c11096c   Osal_platformSpiCsExit
0c110b24   Osal_qmssBeginMemAccess
0c110a88   Osal_qmssCsEnter
0c110aa4   Osal_qmssCsExit
0c110b34   Osal_qmssEndMemAccess
0c110af8   Osal_qmssFree
0c110ac8   Osal_qmssMalloc
0c110ab0   Osal_qmssMtCsEnter
0c110ab4   Osal_qmssMtCsExit
0c004ca4   Osal_srioCsEnter
0c004cc4   Osal_srioCsExit
0c0048c8   Osal_srioEndDescriptorAccess
0c12e080   PBMQ_deq
0c127c40   PBMQ_enq
0c181874   PBMQ_free
0c121220   PBM_alloc
0c1330a0   PBM_close
0c12a280   PBM_copy
0c121360   PBM_free
0c12c140   PBM_open
0c1e8330   PITCount
0c1e8338   PITHigh
0c1e8334   PITUsed
0c100d00   Pa_addMac
0c10e600   Pa_create
0c11d400   Pa_downloadImage
0c110ea0   Pa_forwardResult
0c12e100   Pa_getBufferReq
0c115600   Pa_resetControl
0c181680   PageCount
0c181660   PageMax
0c12e180   PipeClose
0c115840   PipeRecv
0c11fe40   PipeSend
0c0fce18   PowerUpDomains
0c10e940   ProcInit
0c105e44   Process
0c0f9ff8   QMSS_QPOP
0c0fa090   QMSS_QPUSH
0c0fa108   QMSS_QPUSHDESCSIZE
0c131ca0   Qmss_ackInterrupt
0c1e57b0   Qmss_cdmaEoiVector
0c123a20   Qmss_disableAccumulator
0c131ce0   Qmss_getMemRegDescSize
0c12e200   Qmss_getMemRegQueueHandle
0c1330c0   Qmss_getQueueNumber
0c1e56b8   Qmss_highEoiVector
0c10ec80   Qmss_init
0c0fe680   Qmss_insertMemoryRegion
0c1e1af0   Qmss_lowEoiVector
0c1192c0   Qmss_programAccumulator
0c12c1e0   Qmss_queueClose
0c12e280   Qmss_queueOpen
0c12a340   Qmss_setEoiVector
0c1330e0   Qmss_start
0c12c280   Qmss_startCfg
0c130800   RTCAddHook
0c125c60   RTCMsg
0c130860   RTCRemoveHook
0c1194c0   RTCReport
0c123b40   Raco_Vec_C6678_Get_Licence_I
0c1102a0   Raco_Vec_C6678_Get_Licence_II
0c115a80   Raco_Vec_C6678_Get_Licence_II_ASM_Master
0c127d20   Raco_Vec_C6678_Get_Licence_II_ASM_Slave
0c1308c0   Raco_Vec_C6678_Get_SN
0c1e84a0   Raco_Vec_C6678_SYN_MultiCore
000001c0   Raco_Vec_C6678_Size
0c1e84a0   Raco_Vec_C6678_Start
0c0ff718   Radar_CorePllcGetHwSetup
0c0ff80c   Radar_CorePllcHwSetup
0c00d510   Radar_Cppi_channelClose
0c00d384   Radar_Cppi_channelDisable
0c00d2e0   Radar_Cppi_channelEnable
0c00d6c4   Radar_Cppi_channelPause
0c00d76c   Radar_Cppi_channelStatus
0c00d3f8   Radar_Cppi_channelTeardown
0c00c914   Radar_Cppi_close
0c00e224   Radar_Cppi_closeRxFlow
0c00d7ec   Radar_Cppi_configureRxFlow
0c00f33c   Radar_Cppi_decrementRefCount
0c00c5e4   Radar_Cppi_exit
0c00e350   Radar_Cppi_getChannelNumber
0c00e3f4   Radar_Cppi_getCpdmaLoopback
0c00eb28   Radar_Cppi_getData
0c00ebe0   Radar_Cppi_getDataLen
0c00f3e4   Radar_Cppi_getDataOffset
0c00ea90   Radar_Cppi_getDescError
0c00ea74   Radar_Cppi_getDescType
0c00e36c   Radar_Cppi_getFlowId
0c00ec28   Radar_Cppi_getNextBD
0c00f2d0   Radar_Cppi_getOrigBufferpooIndex
0c00ec88   Radar_Cppi_getOriginalBufInfo
0c00f04c   Radar_Cppi_getPSData
0c00f27c   Radar_Cppi_getPSFlags
0c00f154   Radar_Cppi_getPSLen
0c00f224   Radar_Cppi_getPSLocation
0c00f1c8   Radar_Cppi_getPacketLen
0c00ecfc   Radar_Cppi_getPacketType
0c00f390   Radar_Cppi_getRefCount
0c00f42c   Radar_Cppi_getReturnPolicy
0c00f474   Radar_Cppi_getReturnPushPolicy
0c00f4f0   Radar_Cppi_getReturnQueue
0c00ee20   Radar_Cppi_getSoftwareInfo
0c00eec0   Radar_Cppi_getSoftwareInfo0
0c00ef18   Radar_Cppi_getSoftwareInfo1
0c00ef74   Radar_Cppi_getSoftwareInfo2
0c00f5c8   Radar_Cppi_getTag
0c00ed64   Radar_Cppi_getTimeStamp
0c00e434   Radar_Cppi_getVersion
0c00e444   Radar_Cppi_getVersionStr
0c00f2ec   Radar_Cppi_incrementRefCount
0c00c370   Radar_Cppi_init
0c00e450   Radar_Cppi_initDescriptor
0c00ec08   Radar_Cppi_linkNextBD
0c00c64c   Radar_Cppi_open
0c00cef0   Radar_Cppi_rxChannelOpen
0c00e384   Radar_Cppi_setCpdmaLoopback
0c00eaac   Radar_Cppi_setData
0c00eba0   Radar_Cppi_setDataLen
0c00f3b0   Radar_Cppi_setDataOffset
0c00ea48   Radar_Cppi_setDescType
0c00f298   Radar_Cppi_setOrigBufferpooIndex
0c00ec40   Radar_Cppi_setOriginalBufInfo
0c00efa0   Radar_Cppi_setPSData
0c00f240   Radar_Cppi_setPSFlags
0c00f124   Radar_Cppi_setPSLen
0c00f1f4   Radar_Cppi_setPSLocation
0c00f174   Radar_Cppi_setPacketLen
0c00ecc4   Radar_Cppi_setPacketType
0c00f400   Radar_Cppi_setReturnPolicy
0c00f448   Radar_Cppi_setReturnPushPolicy
0c00f490   Radar_Cppi_setReturnQueue
0c00edb8   Radar_Cppi_setSoftwareInfo
0c00ee74   Radar_Cppi_setSoftwareInfo0
0c00eee8   Radar_Cppi_setSoftwareInfo1
0c00ef44   Radar_Cppi_setSoftwareInfo2
0c00f524   Radar_Cppi_setTag
0c00ed18   Radar_Cppi_setTimeStamp
0c00c9cc   Radar_Cppi_txChannelOpen
0c00e9b8   Radar_Osal_cppiBeginMemAccess
0c00f618   Radar_Osal_cppiCsEnter
0c00f638   Radar_Osal_cppiCsExit
0c00ea04   Radar_Osal_cppiEndMemAccess
0c008638   Radar_Osal_qmssBeginMemAccess
0c008a18   Radar_Osal_qmssCsEnter
0c008a38   Radar_Osal_qmssCsExit
0c008684   Radar_Osal_qmssEndMemAccess
0c006c18   Radar_Qmss_ackInterrupt
0c1e57b8   Radar_Qmss_cdmaEoiVector
0c00842c   Radar_Qmss_configureAccTimer
0c007fd0   Radar_Qmss_configureQosCluster
0c0078ec   Radar_Qmss_configureQosClusterRR
0c0071f4   Radar_Qmss_configureQosClusterTB
0c007080   Radar_Qmss_configureQosQueue
0c006f68   Radar_Qmss_configureQosTimer
0c008328   Radar_Qmss_disableAccumulator
0c007020   Radar_Qmss_disableQosCluster
0c006904   Radar_Qmss_downloadFirmware
0c006fc0   Radar_Qmss_enableQosCluster
0c006ccc   Radar_Qmss_getMemRegDescSize
0c006c88   Radar_Qmss_getMemRegQueueHandle
0c00584c   Radar_Qmss_getMemoryRegionCfg
0c006f0c   Radar_Qmss_getQosQueueBase
0c008068   Radar_Qmss_getQosQueueDroppedPktStats
0c008018   Radar_Qmss_getQosQueueForwardPktStats
0c008978   Radar_Qmss_getQueueByteCount
0c008948   Radar_Qmss_getQueueEntryCount
0c0068b4   Radar_Qmss_getQueueHandle
0c00688c   Radar_Qmss_getQueueNumber
0c0089ac   Radar_Qmss_getQueuePacketSize
0c008864   Radar_Qmss_getQueuePushHandle
0c006740   Radar_Qmss_getQueueThreshold
0c006844   Radar_Qmss_getQueueThresholdStatus
0c0067f8   Radar_Qmss_getStarvationCount
0c006c70   Radar_Qmss_getVersion
0c006c7c   Radar_Qmss_getVersionStr
0c1e56d8   Radar_Qmss_highEoiVector
0c005518   Radar_Qmss_init
0c006450   Radar_Qmss_initDescriptor
0c005a30   Radar_Qmss_insertMemoryRegion
0c006d0c   Radar_Qmss_internalQueueOpen
0c006950   Radar_Qmss_internaldownloadFirmware
0c1e5758   Radar_Qmss_lowEoiVector
0c008128   Radar_Qmss_programAccumulator
0c008570   Radar_Qmss_programDiversionQueue
0c0084d0   Radar_Qmss_programReclaimQueue
0c0066b0   Radar_Qmss_queueClose
0c008890   Radar_Qmss_queueDivert
0c008918   Radar_Qmss_queueEmpty
0c00656c   Radar_Qmss_queueOpen
0c0065b8   Radar_Qmss_queueOpenInRange
0c0087d4   Radar_Qmss_queuePop
0c008808   Radar_Qmss_queuePopDescSize
0c0086c8   Radar_Qmss_queuePush
0c008770   Radar_Qmss_queuePushDesc
0c0087a0   Radar_Qmss_queuePushDescSize
0c0080b4   Radar_Qmss_resetQosQueueStats
0c006b10   Radar_Qmss_setEoiVector
0c006eb0   Radar_Qmss_setQosQueueBase
0c006770   Radar_Qmss_setQueueThreshold
0c0057ec   Radar_Qmss_start
0c00b754   Radar_SetDDR3PllConfig
0c0ffa80   Radar_SetPaPllConfig
0c1dedc8   Radar_acc48_le
0c1e0d28   Radar_cppiLldVersionStr
0c1d1300   Radar_cppiObject
0c00e7ac   Radar_cppi_list_add
0c00e820   Radar_cppi_list_cat
0c00e98c   Radar_cppi_list_get_head
0c00e9a4   Radar_cppi_list_get_next
0c00e8a0   Radar_cppi_list_remove
0c00e904   Radar_cppi_list_remove_node
0c1d8310   Radar_gHiPriAccumList
0c0ffc64   Radar_prog_pll1_values
0c1cf480   Radar_qmssGObj
0c1e4c80   Radar_qmssGblCfgParams
0082ed80   Radar_qmssLObj
0082f4a0   Radar_qmssLObjIsValid
0c1e0da8   Radar_qmssLldVersionStr
0c006e84   Radar_qmss_wait_qos_command_buf
0c1cd400   Radar_queueFree
0c009d50   Radar_xmc_setup
0c123c60   RawEthRxPacket
0c12e300   RawEthSockClose
0c117560   RawEthSockNew
0c127e00   RawEthSockNotify
0c127ee0   RawEthSockPcbAttach
0c130920   RawEthSockPcbCleanup
0c12e380   RawEthSockPcbDetach
0c130980   RawEthSockPcbFind
0c131d20   RawEthSockPcbInit
0c133100   RawEthSockPrAttach
0c133120   RawEthSockPrDetach
0c127fc0   RawEthSockSend
0c114580   RawEthSockSet
0c123d80   RawEthTxPacket
0c115cc0   RawInput
0c11ffa0   RawOutput
0c12c320   RouteMsg
0c10bc00   RtCreate
0c1280a0   RtDeRef
0c111f60   RtFind
0c125d60   RtRedirect
0c128180   RtRemove
0c12e400   RtSetFailure
0c12e480   RtSetTimeout
0c12a400   RtWalkBegin
0c1309e0   RtWalkEnd
0c120260   RtWalkNext
0c12a4c0   SBFlush
0c12c460   SBFree
0c123ea0   SBNew
0c10bfa0   SBRead
0c128260   SBSetMax
0c1147e0   SBWrite
00820000   SRIO_INTC_NUM
0c12c500   SemCreate
0c133140   SemDelete
0c133160   SemPend
0c133180   SemPost
0c1331a0   SemReset
0c106014   SendDataByNet
0c0fcd2c   SetDDR3PllConfig
0c0fcc24   SetPaPllConfig
0c0f3e08   Setup_Rx
0c0f3b6c   Setup_Tx
0c105bc0   SignalProcess
0c1215e0   SockAccept
0c12c5a0   SockBind
0c12c640   SockCleanPcb
0c112200   SockClose
0c10ce00   SockConnect
0c11d5a0   SockCreatePacket
0c128420   SockDisconnect
0c12e500   SockGetName
0c12a580   SockIntAbort
0c121720   SockListen
0c1051a0   SockNew
0c10d180   SockNotify
0c131da0   SockPcbAttach
0c114a40   SockPcbBind
0c12e580   SockPcbCleanup
0c120520   SockPcbConnect
0c121860   SockPcbCtlError
0c12e600   SockPcbDetach
0c113180   SockPcbResolve
0c12c6e0   SockPcbResolveChain
0c12a640   SockPcbRtChange
0c1331c0   SockPrAttach
0c130aa0   SockPrCtlError
0c130b00   SockPrDetach
0c106ee0   SockRecv
0c109e20   SockSend
0c0fee60   SockSet
0c1331e0   SockSetOOBData
0c131de0   SockSetOOBMark
0c124320   SockShutdown
0c128500   SockSpawnAbort
0c125f60   SockValidateRoute
0c0fc140   SrioDevice_init
0c12de80   SrioDoorBell_Isr_handler
0c12a700   Srio_Bind_11
0c12a7c0   Srio_Bind_9
0c004cd4   Srio_Bind_DIO
0c004da4   Srio_Navigator_Init
0c010000   Srio_Recv_L3
0c130b60   Srio_allocTransmitBuffer
0c130bc0   Srio_freeRxDrvBuffer
0c1219a0   Srio_getSockOpt
0c115f00   Srio_init
0c0048e4   Srio_listAdd
0c0049a8   Srio_listCat
0c004c18   Srio_listGetHead
0c004c30   Srio_listGetNext
0c004a98   Srio_listRemove
0c004b34   Srio_listRemoveNode
0c107380   Srio_processReceivedBD
0c1196c0   Srio_rxCompletionIsr
0c10f960   Srio_sockBind_DIO
0c114ca0   Srio_sockBind_TYPE11
0c116140   Srio_sockBind_TYPE9
0c12e700   Srio_sockClose
0c11e3e0   Srio_sockClose_DIO
0c124440   Srio_sockClose_TYPE11
0c124560   Srio_sockClose_TYPE9
0c10efc0   Srio_sockOpen
0c124680   Srio_sockRecv
0c10a1e0   Srio_sockSend_DIO
0c121ae0   Srio_sockSend_TYPE11
0c121c20   Srio_sockSend_TYPE9
0c113400   Srio_start
0c0f3b24   Switch_update_addr
0c1e483c   TSK_idle
0c133200   TaskBlock
0c12c780   TaskCreate
0c131e20   TaskDestroy
0c113e00   TaskExit
0c12a940   TaskGetEnv
0c133220   TaskSelf
0c12e780   TaskSetEnv
0c133240   TaskSetPri
0c1129e0   TaskSleep
0c12aa00   TcpChecksum
0c12aac0   TcpClose
0c12c820   TcpDrop
0c11a4a0   TcpGenPacket
0c0f7160   TcpInput
0c0f8b40   TcpOutput
0c1247a0   TcpPrAttach
0c130c20   TcpPrConnect
0c12c8c0   TcpPrCtlError
0c1286c0   TcpPrDetach
0c1287a0   TcpPrDisconnect
0c126160   TcpPrInherit
0c12e800   TcpPrListen
0c133260   TcpPrRecv
0c12c960   TcpPrSend
0c12ca00   TcpPrSendOOB
0c1124a0   TcpPrSetOption
0c130c80   TcpSetPersist
0c133280   TcpTimeoutAdd
0c10a5a0   TcpTimeoutCheck
0c1207e0   TcpTimeoutKeep
0c130ce0   TcpTimeoutPersist
0c131e60   TcpTimeoutRemove
0c11bde0   TcpTimeoutRexmt
0c12ab80   TcpTimeoutSackRexmt
0c131ea0   TcpTimeoutWait2
0c128880   TcpValidateMetrics
0c126260   TcpXmitTimer
0c1332a0   TimerFree
0c12e880   TimerHSTick
0c12caa0   TimerNew
0c11c5a4   UartInit
0c11c588   UartIsDataReady
0c11c554   UartReadBaudRate
0c11c548   UartReadData
0c11c520   UartSetBaudRate
0c11c4e0   UartWriteData
0c128a40   UdpChecksum
0c1060a0   UdpInput
0c111180   UdpOutput
0c128b20   VLANDeinit
0c130e00   VLANInit
0c128c00   VLANReceivePacket
0c10e4ac   VelocitySplit
0c0f3978   Verify_Init
0c008a4c   WaitInit
0c1e8304   _CSL_intcAllocMask
0c1e8280   _CSL_intcCpuIntrTable
0c11a860   _CSL_intcDispatcher
0c117bc0   _CSL_intcEvent0Dispatcher
0c117de0   _CSL_intcEvent1Dispatcher
0c118000   _CSL_intcEvent2Dispatcher
0c118220   _CSL_intcEvent3Dispatcher
0c1e82c8   _CSL_intcEventHandlerRecord
0c1e8308   _CSL_intcEventOffsetMap
0c121fe0   _CSL_intcIvpSet
0c133720   _CSL_intcNmiDummy
0c1e82c4   _CSL_intcNumEvents
0c1d8800   _CSL_intcVectorTable
0c181580   _ICMPIn
0c1e83ec   _ICMPInErrors
0c1815d0   _ICMPOut
0c1e83f0   _ICMPOutErrors
0c1e83b4   _IGMPForceVersion1
0c1e82e4   _IGMPInDiscard
0c1e82e8   _IGMPInQuery
0c1e82ec   _IGMPInQueryGroup
0c1e82f0   _IGMPInResponse
0c1e82f4   _IGMPOutResponse
0c1e83f4   _IPExecuting
0c1e843c   _IPReasmPtr
0c128dc0   _LLIExpListInsert
0c12ea00   _LLIExpListRemove
0c11bfa0   _LLITimeoutCheck
0c12cbe0   _LLITimeoutFlush
0c128ea0   _RtExpListInsert
0c12eb00   _RtExpListRemove
0c1248c0   _RtNodeInsert
0c126360   _RtNodeRemove
0c1332c0   _TaskInit
0c1332e0   _TaskShutdown
0c000000   __ASM__
0c1e8660   __CIOBUF_
0c000058   __ISA__
0c000070   __PLAT__
0c0000a0   __TARG__
0c1e9b40   __TI_CINIT_Base
0c1e9c18   __TI_CINIT_Limit
0c1e9a84   __TI_Handler_Table_Base
0c1e9a90   __TI_Handler_Table_Limit
UNDEFED    __TI_INITARRAY_Base
UNDEFED    __TI_INITARRAY_Limit
0082d880   __TI_STACK_END
00002000   __TI_STACK_SIZE
0c1e8280   __TI_STATIC_BASE
00000001   __TI_args_main
0c133760   __TI_decompress_none
0c133780   __TI_decompress_rle24
0c1e55dc   __TI_enable_exit_profile_output
ffffffff   __TI_pprof_out_hndl
ffffffff   __TI_prof_data_size
ffffffff   __TI_prof_data_start
0c129220   __TI_zero_init
0c0000c8   __TRDR__
ffffffff   __binit__
0c131ee0   __c6xabi_call_stub
0c104080   __c6xabi_divd
0c12adc0   __c6xabi_divu
0c116380   __c6xabi_divull
0c12eb80   __c6xabi_fixdu
0c130ec0   __c6xabi_frcmpyd_div
0c12ec00   __c6xabi_llshl
0c130f20   __c6xabi_llshru
0c12cc80   __c6xabi_nround
0c133360   __c6xabi_pop_rts
0c133380   __c6xabi_push_rts
0c12ae80   __c6xabi_remi
0c12cd20   __c6xabi_remu
0c131f20   __c6xabi_strasgi_64plus
0c133300   __c6xabi_trunc
ffffffff   __c_args__
0c131ee0   __call_stub
0c133320   __cxa_atexit
0c12ad00   __cxa_finalize
0c133340   __cxa_ia64_exit
0c12adc0   __divu
0c133360   __pop_rts
0c133380   __push_rts
0c12ae80   __remi
0c12cd20   __remu
0c131f20   __strasgi_64plus
0c1333a0   __xdc__init
0c1e4504   __xdc__init__addr
0c131f60   _args_main
00000000   _argsize
0c121d60   _auto_init_elf
0c12cdc0   _c_int00
0c12ce60   _cleanup
0c1e55d4   _cleanup_ptr
0c1249e0   _closefile
0c12af40   _doflush
0c1e55d8   _dtors_ptr
0c1e4d9c   _ft_end
0c1e4508   _ftable
0c1e4ea0   _ipcfg
0c1333c0   _llSerialInit
0c1333e0   _llSerialServiceCheck
0c133400   _llSerialShutdown
0c131fa0   _llTimerInit
0c133420   _llTimerShutdown
0c133440   _llUserLedInit
0c133460   _llUserLedShutdown
0c1e56f8   _lock
0c10c340   _mmCheck
0c124b00   _mmInit
0c133480   _nop
0c1e5668   _oscfg
0c1334a0   _register_lock
0c1334c0   _register_unlock
0082b880   _stack
0c130f80   _subcull
0c180fc8   _tmpnams
0c1e56fc   _unlock
0c126460   _wrt_ok
0c133520   abort
0c1df3f8   acc48_le
0c124c20   accept
0c133540   atexit
0c128f80   bind
ffffffff   binit
0c1d8a00   c1
0c1dd468   c2
0c0d3900   cFFTTwidTable_L3
0c1d01c0   chObjPtrrxcount
0c1cf880   chObjPtrtxcount
0c133560   clear_gie
0c129140   close
0c10fc80   configSerdes
0c1817f0   coreKey
0c111a00   cos
0c1e5300   cppiGblCfgParams
0c1e541c   cppiLObj
0c1e8080   cppiObject
0c119cc0   cppi_internal_heap_add
0c12ed00   cppi_internal_heap_cache_begin
0c1336a0   cppi_internal_heap_free
0c12cf00   cppi_internal_heap_malloc
0c130fe0   cppi_list_add
0c131040   cppi_list_cache_invalidate
0c12cfa0   cppi_list_cat
0c1336c0   cppi_list_get_head
0c1336e0   cppi_list_get_next
0c12ed80   cppi_list_remove
0c12b000   cppi_list_remove_node
0c1e83c0   csd
0c12d0e0   dhcpBuildDecline
0c1310a0   dhcpBuildDiscover
0c11d8e0   dhcpBuildOptions
0c11eb60   dhcpBuildRequest
0c122120   dhcpDecodeType
0c12b180   dhcpOptionsClear
0c10d500   dhcpPacketProcess
0c131100   dhcpPacketReceive
0c131160   dhcpPacketSend
0c12ee00   dhcpSocketClose
0c11aa40   dhcpSocketOpen
0c116800   dhcpState
0c118440   dhcpVerifyMessage
0c0f3918   emac_display_linkstatus
0c1e6b28   emac_port_mode
0c004c48   enable_srio
0c1e8300   ethSemHandle
0c12f180   evmI2CInit
0c12b240   exit
0c11ece0   fdClose
0c12d220   fdCloseSession
0c124d40   fdOpenSession
0c132060   fdint_freefdt
0c1311c0   fdint_getfdt
0c129300   fdint_lockfd
0c1337a0   fdint_signaltimeout
0c1293e0   fdint_unlockfd
0c12ee80   fdint_waitevent
0c1d0ac0   flowObjPtrrxcount
0c10db54   fpgaControlUserLEDs
0c10db28   fpgaDisableEepromWriteProtect
0c10daf8   fpgaDisableNandWriteProtect
0c10dacc   fpgaDisableNorWriteProtect
0c10daa0   fpgaEnableEepromWriteProtect
0c10da70   fpgaEnableNandWriteProtect
0c10da44   fpgaEnableNorWriteProtect
0c10da20   fpgaGetAMCDetect
0c10d9f0   fpgaGetUserSwitch
0c10d880   fpgaReadConfigurationRegister
0c10d978   fpgaWriteConfigurationRegister
0c10c6e0   fputs
0c1320a0   free
0c1d1518   free_counter
0c124e60   fseek
0082f980   gAccChannelNum
0c181838   gCppiCfg
0c1d8100   gDataBufferMemMgr
0c1d1510   gDataBufferMemMgrMaxSize
0c1e6ab4   gDeviceEeprom0
0c1e6aec   gDeviceEeprom1
0c1e6a44   gDeviceNand
0c1e5818   gDeviceNandBBlist
0c1e6a7c   gDeviceNor
0082f9a0   gGlobalFreeQHnd
0082f880   gHiPriAccumList
00827880   gHostDesc
0c181768   gI2cBlock
0082d980   gMemL2Ram
0082dd68   gMemL3Ram
0082d880   gPAInst
0082fa34   gPAInstHnd
0082f6b4   gPaCfgCmdRespQHnd
0082f6c0   gPaL2Handles
0082f6e8   gPaL3Handles
0082f738   gPaL4Handles
0082f680   gPaTxQHnd
0082fa30   gPassCpdmaHnd
0082f9d0   gPassCpdmaRxChanHnd
0082f9a8   gPassCpdmaTxChanHnd
0082fa38   gQPopErrorCounter
0082fa3c   gQPushErrorCounter
0082f98c   gRxCounter
0082f994   gRxDropCounter
0082f6b8   gRxFlowHnd
0082f6ac   gRxFreeQHnd
0082f6b0   gRxQHnd
0c1d8000   gSRIODriverMCB
0c1e82fc   gTxCmdFreeQHnd
0c1e82f8   gTxCmdReturnQHnd
0082f988   gTxCounter
0082f990   gTxDropCounter
0082f6a8   gTxFreeQHnd
0082f984   gTxPort
0082f6a4   gTxReturnQHnd
0c10d938   getBoardVersion
0c10d8f8   getFpgaDevID
0c1d8300   hDrvManagedSrioDrv
0c1e8478   hHostCmdRespTask
0c1e847c   hHostCmdResponseMail
0c1e8470   hNetRecvTask
0c1e8480   hNetSendMail
0c1e8490   hNetworkSendTask
0c1e8484   hProcBufMail
0c1e8474   hSigProcTask
0c1e848c   hUpLoadDataMail
0c1e846c   heapMem0
0082f638   hintc
0c1d8580   hnd
0082eea0   hostDesc
0c1e8488   hwi0
0c1003e4   i2cEepromMacRead
0c1002b0   i2cEepromMacWrite
0c100190   i2cEepromRead
0c1000d0   i2cEepromWrite
0c0ffe00   i2cEepromWriteBlock
0c0fffcc   i2cEepromWriteByteAddr
0c1320e0   inet_addr
0c1105a0   inet_aton
0082f598   intcContext
0082f630   intcObj
0c18169c   ips
0c1cf400   isQMSSInitialized
0c1d1500   isSRIOInitialized
0c0089d8   l2_global_address
0c132120   list_add
0c1337c0   list_get_head
0c1337e0   list_get_next
0c132160   list_remove
0c131220   list_remove_node
0c12d360   listen
0c11ee60   llEnter
0c1294c0   llExit
0c133800   llSerialService
0c133820   llTimerGetStartTime
0c12ef00   llTimerGetTime
0c12d400   llTimerTick
0c12d4a0   lseek
0c1da7c8   m
0c12d554   main
0c12ef80   malloc
0c1d1514   malloc_counter
0c12d5e0   memcpy
0c1295a0   memset
0c10f300   mmAlloc
0c129680   mmBulkAlloc
0c12d680   mmBulkFree
0c1223a0   mmCopy
0c126660   mmFree
0c12b300   mmZeroInit
0c12d7c0   modf
0c11ca20   mulcoresyn
0c1d1520   myMemory
0c1d0200   mychObjrx
0c1cf900   mychObjtx
0c12d544   myfirstfunc
0c1d0b00   myflowObj
0c12d550   mylastfunc
0c1d3a00   mysockData
0c1d3400   mysrioDrvInst
0c1d3800   mysrioSocket
0c0fbecc   nandFlashBlockErase
0c0fbec4   nandInit
0c1817e0   nimuGlobalConfigParams
0c0f390c   nimu_getrxdrops
0c0f3900   nimu_gettxdrops
0c181704   nimu_mcb
0c10b000   nor_erase
0c10af94   nor_get_details
0c10af2c   nor_init
0c10aeb8   nor_read
0c10ada4   nor_write
00820020   pFlagFromCore0
00820024   pFlagToCore0x
00827830   pFlag_Master
0c1e568c   paLObj
0c1e1738   paMemAligns
0c1e0f50   pap_pdsp_const_reg_map
0c0f6a30   platform_blocknpage_to_offset
0c0f58c4   platform_delay
0c0f70b4   platform_delaycycles
0c0f6448   platform_device_close
0c0f7020   platform_device_erase_block
0c0f6f2c   platform_device_mark_block_bad
0c0f6224   platform_device_open
0c0f632c   platform_device_read
0c0f6eb8   platform_device_read_spare_data
0c0f6ac8   platform_device_write
0c0f69c0   platform_device_write_spare_data
0c1e8424   platform_errno
0c0f6850   platform_external_memory_test
0c0f5ab8   platform_get_coreid
0c0f67f8   platform_get_emac_info
0c0f6548   platform_get_info
0c0f61c8   platform_get_macaddr
0c0f5980   platform_get_phy_addr
0c10d9f0   platform_get_switch_state
0c0f5f04   platform_init
0c1e8428   platform_init_return_code
0c0f5ac8   platform_internal_memory_test
0c0f5a90   platform_led
0c0f59d0   platform_offset_to_blocknpage
0c0f5984   platform_phy_link_status
0c0f5964   platform_uart_init
0c0f5904   platform_uart_read
0c0f5898   platform_uart_set_baudrate
0c0f5788   platform_uart_write
0c0f5798   platform_write
0c0f5770   platform_write_configure
0c1313a0   printf
0c1e6b30   printlog
0c0fcb18   prog_pll1_values
0c1e5700   pstrMsgName
0c1e8418   ptTimeFirst
0c1321e0   puts
0c1e3b00   qmssGObj
0c1e4b60   qmssGblCfgParams
0c1cf7f8   qmssInitConfig
0c181108   qmssLObj
0c1e8450   qmssLObjIsValid
0c118d48   qmss_cppi_pa_init
0c1e1b00   queueFree
0c1814dc   raweth_pcb
0c1818b4   raweths
0c1818a4   raws
0c0fbc0c   readNandPage
0c12f080   readmsg
0c124f80   recv
0c12fc80   remove
0c0fa3b0   res_mgr_cppi_get_passhandle
0c0fa818   res_mgr_get_painstance
0c0fa3c4   res_mgr_init_cppi
0c0fa82c   res_mgr_init_pass
0c0fa178   res_mgr_init_qmss
0c0f9fe8   res_mgr_qmss_get_freeq
0c0fa62c   res_mgr_stop_cppi
0c0fa390   res_mgr_stop_qmss
0c12d540   resetfunc
0c133580   restore_irp
0c1335a0   restore_itsr
0c1335c0   restore_nrp
0c1335e0   restore_pgie
0c133600   save_irp
0c133620   save_itsr
0c133640   save_nrp
0c133660   save_pgie
0c1d1280   scppiGblCfgParams
0c1251c0   send
0c1224e0   sendto
0c0f5740   serial_num_isvalid
0c133680   set_gie
0c1252e0   setsockopt
0c119ec0   setvbuf
0c113900   sin
0c1d150c   sockDataPtrcount
0c126860   socket
0c108878   spi_claim
0c108830   spi_cmd
0c1087f8   spi_cmd_read
0c1087c4   spi_cmd_write
0c108750   spi_read_word
0c108734   spi_release
0c1086d4   spi_write_word
0c108580   spi_xfer
0c132260   sprintf
0c1d1504   srioDrvInstPtrcount
0c1d8200   srioSocket
0c1d8400   srioSocket1
0c1d1508   srioSocketPtrcount
0c1d8500   srioSocket_type11
0c1e83bc   ssd
0082f63c   state
0c181894   stkEvent
0c1e8414   tcp_iss
0c181418   tcps
0c118d34   testMDIOAccess
0c1e8384   ti_ndk_config_Global_HostName
0c181858   ti_ndk_config_Global_Id2Size
0c1e8460   ti_ndk_config_Global_largest
0c1e8464   ti_ndk_config_Global_numFrameBuf
0c181900   ti_ndk_config_Global_pBufMem
0c1c9900   ti_ndk_config_Global_pHdrMem
0c1747c8   ti_ndk_config_Global_pit
0c174988   ti_ndk_config_Global_pitBuffer
0c1e8458   ti_ndk_config_Global_rawPageCount
0c1e8454   ti_ndk_config_Global_rawPageSize
0c1e8468   ti_ndk_config_Global_sizeFrameBuf
0c1e845c   ti_ndk_config_Global_smallest
0c116a40   ti_ndk_config_Global_stackThread
0c122620   ti_ndk_config_ip_init
0c12f200   ti_ndk_config_tcp_init
0c1e11f4   ti_sysbios_BIOS_Module__diagsEnabled__C
0c1e160c   ti_sysbios_BIOS_Module__diagsIncluded__C
0c1e1734   ti_sysbios_BIOS_Module__diagsMask__C
0c1e1a74   ti_sysbios_BIOS_Module__id__C
0c1e3f00   ti_sysbios_BIOS_Module__state__V
0c1338e0   ti_sysbios_BIOS_RtsGateProxy_enter__E
0c133900   ti_sysbios_BIOS_RtsGateProxy_leave__E
0c133b40   ti_sysbios_BIOS_RtsGateProxy_query__E
0c12b3c0   ti_sysbios_BIOS_errorRaiseHook__I
0c131400   ti_sysbios_BIOS_exitFunc__I
0c1e178c   ti_sysbios_BIOS_installedErrorHook__C
0c131460   ti_sysbios_BIOS_registerRTSLock__I
0c133920   ti_sysbios_BIOS_setThreadType__E
0c1322a0   ti_sysbios_BIOS_startFunc__I
0c1322e0   ti_sysbios_BIOS_start__E
0c133940   ti_sysbios_family_c62_TaskSupport_Module__startupDone__S
0c131fe0   ti_sysbios_family_c62_TaskSupport_buildTaskStack
0c133960   ti_sysbios_family_c62_TaskSupport_checkStack__E
0c133980   ti_sysbios_family_c62_TaskSupport_getStackAlignment__E
0c1334e0   ti_sysbios_family_c62_TaskSupport_glue
0c1e179c   ti_sysbios_family_c62_TaskSupport_stackAlignment__C
0c12f280   ti_sysbios_family_c62_TaskSupport_start__E
0c12ec80   ti_sysbios_family_c62_TaskSupport_swap__E
0c1e1748   ti_sysbios_family_c64p_EventCombiner_EVTMASK__C
0c1e17ac   ti_sysbios_family_c64p_EventCombiner_E_unpluggedEvent__C
0c1e1a78   ti_sysbios_family_c64p_EventCombiner_Module__id__C
0c1e3f1c   ti_sysbios_family_c64p_EventCombiner_Module__state__V
0c1314c0   ti_sysbios_family_c64p_EventCombiner_Module_startup__E
0c1314c0   ti_sysbios_family_c64p_EventCombiner_Module_startup__F
0c132320   ti_sysbios_family_c64p_EventCombiner_disableEvent__E
0c132320   ti_sysbios_family_c64p_EventCombiner_disableEvent__F
0c131520   ti_sysbios_family_c64p_EventCombiner_dispatchPlug__E
0c131520   ti_sysbios_family_c64p_EventCombiner_dispatchPlug__F
0c126960   ti_sysbios_family_c64p_EventCombiner_dispatch__E
0c126960   ti_sysbios_family_c64p_EventCombiner_dispatch__F
0c132360   ti_sysbios_family_c64p_EventCombiner_enableEvent__E
0c132360   ti_sysbios_family_c64p_EventCombiner_enableEvent__F
0c131580   ti_sysbios_family_c64p_EventCombiner_unused__E
0c131580   ti_sysbios_family_c64p_EventCombiner_unused__F
0c1e1818   ti_sysbios_family_c64p_Exception_E_exceptionMin__C
0c1e1a7c   ti_sysbios_family_c64p_Exception_Module__id__C
0c1e431c   ti_sysbios_family_c64p_Exception_Module__state__V
0c12f300   ti_sysbios_family_c64p_Exception_Module_startup__E
0c12f300   ti_sysbios_family_c64p_Exception_Module_startup__F
0c11efe0   ti_sysbios_family_c64p_Exception_dispatch__E
0c1e181c   ti_sysbios_family_c64p_Exception_exceptionHook__C
0c1e1820   ti_sysbios_family_c64p_Exception_externalHook__C
0c100580   ti_sysbios_family_c64p_Exception_handler__I
0c116c80   ti_sysbios_family_c64p_Exception_internalHandler__I
0c1e1824   ti_sysbios_family_c64p_Exception_internalHook__C
0c1e1828   ti_sysbios_family_c64p_Exception_nmiHook__C
0c1e7c00   ti_sysbios_family_c64p_Hwi0
0c1e7c20   ti_sysbios_family_c64p_Hwi1
0c1e7d40   ti_sysbios_family_c64p_Hwi10
0c1e7d60   ti_sysbios_family_c64p_Hwi11
0c1e7d80   ti_sysbios_family_c64p_Hwi12
0c1e7da0   ti_sysbios_family_c64p_Hwi13
0c1e7dc0   ti_sysbios_family_c64p_Hwi14
0c1e7de0   ti_sysbios_family_c64p_Hwi15
0c1e7c40   ti_sysbios_family_c64p_Hwi2
0c1e7c60   ti_sysbios_family_c64p_Hwi3
0c1e7c80   ti_sysbios_family_c64p_Hwi4
0c1e7ca0   ti_sysbios_family_c64p_Hwi5
0c1e7cc0   ti_sysbios_family_c64p_Hwi6
0c1e7ce0   ti_sysbios_family_c64p_Hwi7
0c1e7d00   ti_sysbios_family_c64p_Hwi8
0c1e7d20   ti_sysbios_family_c64p_Hwi9
0c1e182c   ti_sysbios_family_c64p_Hwi_LD_end__C
0c1e1830   ti_sysbios_family_c64p_Hwi_LM_begin__C
0c1e1834   ti_sysbios_family_c64p_Hwi_Module__diagsEnabled__C
0c1e1838   ti_sysbios_family_c64p_Hwi_Module__diagsIncluded__C
0c1e183c   ti_sysbios_family_c64p_Hwi_Module__diagsMask__C
0c1e1a80   ti_sysbios_family_c64p_Hwi_Module__id__C
0c1e1a84   ti_sysbios_family_c64p_Hwi_Module__loggerDefined__C
0c1e1840   ti_sysbios_family_c64p_Hwi_Module__loggerFxn1__C
0c1e1844   ti_sysbios_family_c64p_Hwi_Module__loggerFxn8__C
0c1e1848   ti_sysbios_family_c64p_Hwi_Module__loggerObj__C
0c1e4348   ti_sysbios_family_c64p_Hwi_Module__root__V
0c1323a0   ti_sysbios_family_c64p_Hwi_Module__startupDone__F
0c1323a0   ti_sysbios_family_c64p_Hwi_Module__startupDone__S
0c1e4350   ti_sysbios_family_c64p_Hwi_Module__state__V
0c122760   ti_sysbios_family_c64p_Hwi_Module_startup__E
0c122760   ti_sysbios_family_c64p_Hwi_Module_startup__F
0c1e4ff8   ti_sysbios_family_c64p_Hwi_Object__table__V
0c1339a0   ti_sysbios_family_c64p_Hwi_clearInterrupt__E
0c1323e0   ti_sysbios_family_c64p_Hwi_disableInterrupt__E
0c1198c0   ti_sysbios_family_c64p_Hwi_dispatchAlways
0c110ba0   ti_sysbios_family_c64p_Hwi_dispatchC__I
0c132420   ti_sysbios_family_c64p_Hwi_enableInterrupt__E
0c12f380   ti_sysbios_family_c64p_Hwi_eventMap__E
0c1315e0   ti_sysbios_family_c64p_Hwi_restoreInterrupt__E
0c1339c0   ti_sysbios_family_c64p_Hwi_startup__E
0c1339e0   ti_sysbios_family_c64p_Hwi_switchFromBootStack__E
0c133a00   ti_sysbios_family_c64p_TimestampProvider_Module_startup__E
0c133a00   ti_sysbios_family_c64p_TimestampProvider_Module_startup__F
0c133a20   ti_sysbios_family_c64p_TimestampProvider_get64__E
0c133a40   ti_sysbios_family_c64p_tci6488_TimerSupport_enable__E
0c1228a0   ti_sysbios_family_c66_Cache_Module_startup__E
0c1228a0   ti_sysbios_family_c66_Cache_Module_startup__F
0c1e184c   ti_sysbios_family_c66_Cache_atomicBlockSize__C
0c1e1774   ti_sysbios_family_c66_Cache_initSize__C
0c133a60   ti_sysbios_family_c66_Cache_inv__E
0c1dfe58   ti_sysbios_family_c66_Cache_marvalues__C
0c12f400   ti_sysbios_family_c66_Cache_wbInvAll__E
0c133a80   ti_sysbios_family_c66_Cache_wbInv__E
0c133aa0   ti_sysbios_family_c66_Cache_wb__E
0c132020   ti_sysbios_family_xxx_Hwi_switchToIsrStack
0c133500   ti_sysbios_family_xxx_Hwi_switchToTaskStack
0c132460   ti_sysbios_gates_GateHwi_Handle__label__S
0c133ac0   ti_sysbios_gates_GateHwi_Instance_init__F
0c1e13e0   ti_sysbios_gates_GateHwi_Module__FXNS__C
0c1e43b8   ti_sysbios_gates_GateHwi_Module__root__V
0c1e1490   ti_sysbios_gates_GateHwi_Object__DESC__C
0c1e1688   ti_sysbios_gates_GateHwi_Object__PARAMS__C
0c12f480   ti_sysbios_gates_GateHwi_Object__create__S
0c1324a0   ti_sysbios_gates_GateHwi_Object__delete__S
0c1e57a8   ti_sysbios_gates_GateHwi_Object__table__V
0c133ae0   ti_sysbios_gates_GateHwi_enter__E
0c133b00   ti_sysbios_gates_GateHwi_leave__E
0c133b20   ti_sysbios_gates_GateHwi_query__E
0c133b20   ti_sysbios_gates_GateHwi_query__F
0c1e1850   ti_sysbios_gates_GateMutex_A_badContext__C
0c1324e0   ti_sysbios_gates_GateMutex_Handle__label__S
0c1e1854   ti_sysbios_gates_GateMutex_Instance_State_sem__O
0c132520   ti_sysbios_gates_GateMutex_Instance_finalize__F
0c131640   ti_sysbios_gates_GateMutex_Instance_init__F
0c1e1404   ti_sysbios_gates_GateMutex_Module__FXNS__C
0c1e1858   ti_sysbios_gates_GateMutex_Module__diagsEnabled__C
0c1e185c   ti_sysbios_gates_GateMutex_Module__diagsIncluded__C
0c1e1860   ti_sysbios_gates_GateMutex_Module__diagsMask__C
0c1e1a88   ti_sysbios_gates_GateMutex_Module__id__C
0c1e43c0   ti_sysbios_gates_GateMutex_Module__root__V
0c1e14b0   ti_sysbios_gates_GateMutex_Object__DESC__C
0c1e16a0   ti_sysbios_gates_GateMutex_Object__PARAMS__C
0c12f500   ti_sysbios_gates_GateMutex_Object__create__S
0c132560   ti_sysbios_gates_GateMutex_Object__delete__S
0c1e5560   ti_sysbios_gates_GateMutex_Object__table__V
0c11da80   ti_sysbios_gates_GateMutex_enter__E
0c1325a0   ti_sysbios_gates_GateMutex_leave__E
0c133b40   ti_sysbios_gates_GateMutex_query__E
0c133b40   ti_sysbios_gates_GateMutex_query__F
0c133a60   ti_sysbios_hal_Cache_CacheProxy_inv__E
0c12f400   ti_sysbios_hal_Cache_CacheProxy_wbInvAll__E
0c133a80   ti_sysbios_hal_Cache_CacheProxy_wbInv__E
0c133aa0   ti_sysbios_hal_Cache_CacheProxy_wb__E
0c133a60   ti_sysbios_hal_Cache_inv__E
0c12f400   ti_sysbios_hal_Cache_wbInvAll__E
0c133a80   ti_sysbios_hal_Cache_wbInv__E
0c133aa0   ti_sysbios_hal_Cache_wb__E
0c133b60   ti_sysbios_hal_Hwi_HwiProxy_Module__startupDone__S
0c1339a0   ti_sysbios_hal_Hwi_HwiProxy_clearInterrupt__E
0c1323e0   ti_sysbios_hal_Hwi_HwiProxy_disableInterrupt__E
0c132420   ti_sysbios_hal_Hwi_HwiProxy_enableInterrupt__E
0c1315e0   ti_sysbios_hal_Hwi_HwiProxy_restoreInterrupt__E
0c1339c0   ti_sysbios_hal_Hwi_HwiProxy_startup__E
0c1339e0   ti_sysbios_hal_Hwi_HwiProxy_switchFromBootStack__E
0c1e43c8   ti_sysbios_hal_Hwi_Module__root__V
0c133b80   ti_sysbios_hal_Hwi_Module_startup__E
0c133b80   ti_sysbios_hal_Hwi_Module_startup__F
0c1e5768   ti_sysbios_hal_Hwi_Object__table__V
0c1339a0   ti_sysbios_hal_Hwi_clearInterrupt__E
0c1323e0   ti_sysbios_hal_Hwi_disableInterrupt__E
0c132420   ti_sysbios_hal_Hwi_enableInterrupt__E
0c1316a0   ti_sysbios_hal_Hwi_initStack
0c1315e0   ti_sysbios_hal_Hwi_restoreInterrupt__E
0c1339c0   ti_sysbios_hal_Hwi_startup__E
0c1339e0   ti_sysbios_hal_Hwi_switchFromBootStack__E
0c1e43d0   ti_sysbios_hal_Timer_Module__root__V
0c1325e0   ti_sysbios_hal_Timer_Module__startupDone__F
0c1325e0   ti_sysbios_hal_Timer_Module__startupDone__S
0c133ba0   ti_sysbios_hal_Timer_Module_startup__E
0c133ba0   ti_sysbios_hal_Timer_Module_startup__F
0c1e5788   ti_sysbios_hal_Timer_Object__table__V
0c133bc0   ti_sysbios_hal_Timer_TimerProxy_Module__startupDone__S
0c133be0   ti_sysbios_hal_Timer_TimerProxy_getExpiredCounts__E
0c133c00   ti_sysbios_hal_Timer_TimerProxy_getPeriod__E
0c133c20   ti_sysbios_hal_Timer_TimerProxy_setNextTick__E
0c129920   ti_sysbios_hal_Timer_TimerProxy_startup__E
0c129920   ti_sysbios_hal_Timer_startup__E
0c1e1864   ti_sysbios_heaps_HeapMem_A_align__C
0c1e1868   ti_sysbios_heaps_HeapMem_A_heapSize__C
0c1e186c   ti_sysbios_heaps_HeapMem_A_invalidFree__C
0c1e1870   ti_sysbios_heaps_HeapMem_A_zeroBlock__C
0c1e1874   ti_sysbios_heaps_HeapMem_E_memory__C
0c132620   ti_sysbios_heaps_HeapMem_Handle__label__S
80000000   ti_sysbios_heaps_HeapMem_Instance_State_0_buf__A
0c134140   ti_sysbios_heaps_HeapMem_Instance_State_1_buf__A
0c11f160   ti_sysbios_heaps_HeapMem_Instance_init__F
0c133c40   ti_sysbios_heaps_HeapMem_Module_GateProxy_enter__E
0c133c60   ti_sysbios_heaps_HeapMem_Module_GateProxy_leave__E
0c133b40   ti_sysbios_heaps_HeapMem_Module_GateProxy_query__E
0c1e1390   ti_sysbios_heaps_HeapMem_Module__FXNS__C
0c1e1878   ti_sysbios_heaps_HeapMem_Module__diagsEnabled__C
0c1e187c   ti_sysbios_heaps_HeapMem_Module__diagsIncluded__C
0c1e1880   ti_sysbios_heaps_HeapMem_Module__diagsMask__C
0c1e1884   ti_sysbios_heaps_HeapMem_Module__gateObj__C
0c1e1a8c   ti_sysbios_heaps_HeapMem_Module__id__C
0c1e43d8   ti_sysbios_heaps_HeapMem_Module__root__V
0c1e14d0   ti_sysbios_heaps_HeapMem_Object__DESC__C
0c1e14f0   ti_sysbios_heaps_HeapMem_Object__PARAMS__C
0c1e1888   ti_sysbios_heaps_HeapMem_Object__count__C
0c12f580   ti_sysbios_heaps_HeapMem_Object__create__S
0c132660   ti_sysbios_heaps_HeapMem_Object__delete__S
0c1326a0   ti_sysbios_heaps_HeapMem_Object__get__S
0c1e5640   ti_sysbios_heaps_HeapMem_Object__table__V
0c1034a0   ti_sysbios_heaps_HeapMem_alloc__E
0c102e40   ti_sysbios_heaps_HeapMem_free__E
0c12b480   ti_sysbios_heaps_HeapMem_getStats__E
0c12d9a0   ti_sysbios_heaps_HeapMem_init__I
0c133c80   ti_sysbios_heaps_HeapMem_isBlocking__E
0c1e188c   ti_sysbios_heaps_HeapMem_reqAlignMask__C
0c1e1890   ti_sysbios_heaps_HeapMem_reqAlign__C
0c1e5720   ti_sysbios_io_DEV_Module_State_0_table__A
0c1e1a90   ti_sysbios_io_DEV_Module__id__C
0c1e43e0   ti_sysbios_io_DEV_Module__root__V
0c1e43e8   ti_sysbios_io_DEV_Module__state__V
0c11a0c0   ti_sysbios_io_DEV_Module_startup__E
0c11a0c0   ti_sysbios_io_DEV_Module_startup__F
0c1e1894   ti_sysbios_io_DEV_Object__count__C
0c133ca0   ti_sysbios_io_DEV_Object__get__S
0c1e1898   ti_sysbios_io_DEV_tableSize__C
0c1e189c   ti_sysbios_knl_Clock_A_badThreadType__C
0c1229e0   ti_sysbios_knl_Clock_Instance_finalize__F
0c113b80   ti_sysbios_knl_Clock_Instance_init__F
0c1e18a0   ti_sysbios_knl_Clock_LM_begin__C
0c1e18a4   ti_sysbios_knl_Clock_LM_tick__C
0c1e18a8   ti_sysbios_knl_Clock_LW_delayed__C
0c1e18ac   ti_sysbios_knl_Clock_Module_State_clockQ__O
0c1e18b0   ti_sysbios_knl_Clock_Module__diagsEnabled__C
0c1e18b4   ti_sysbios_knl_Clock_Module__diagsIncluded__C
0c1e18b8   ti_sysbios_knl_Clock_Module__diagsMask__C
0c1e1a94   ti_sysbios_knl_Clock_Module__id__C
0c1e1a98   ti_sysbios_knl_Clock_Module__loggerDefined__C
0c1e18bc   ti_sysbios_knl_Clock_Module__loggerFxn1__C
0c1e18c0   ti_sysbios_knl_Clock_Module__loggerFxn2__C
0c1e18c4   ti_sysbios_knl_Clock_Module__loggerObj__C
0c1e43ec   ti_sysbios_knl_Clock_Module__root__V
0c1e43f4   ti_sysbios_knl_Clock_Module__state__V
0c12f600   ti_sysbios_knl_Clock_Module_startup__E
0c12f600   ti_sysbios_knl_Clock_Module_startup__F
0c1e1510   ti_sysbios_knl_Clock_Object__DESC__C
0c1e1428   ti_sysbios_knl_Clock_Object__PARAMS__C
0c12f680   ti_sysbios_knl_Clock_Object__create__S
0c1326e0   ti_sysbios_knl_Clock_Object__destruct__S
0c133cc0   ti_sysbios_knl_Clock_Params__init__S
0c12f700   ti_sysbios_knl_Clock_doTick__I
0c12f780   ti_sysbios_knl_Clock_getTicks__E
0c12b540   ti_sysbios_knl_Clock_logTick__E
0c126a60   ti_sysbios_knl_Clock_startI__E
0c129840   ti_sysbios_knl_Clock_start__E
0c1e18c8   ti_sysbios_knl_Clock_tickMode__C
0c1e18cc   ti_sysbios_knl_Clock_tickSource__C
0c112740   ti_sysbios_knl_Clock_workFunc__E
0c1e4420   ti_sysbios_knl_Event_Module__root__V
0c1e18d0   ti_sysbios_knl_Idle_funcList__A
0c1e17d8   ti_sysbios_knl_Idle_funcList__C
0c12f800   ti_sysbios_knl_Idle_loop__E
0c174140   ti_sysbios_knl_Mailbox_Instance_State_0_allocBuf__A
0c1741e0   ti_sysbios_knl_Mailbox_Instance_State_1_allocBuf__A
0c174280   ti_sysbios_knl_Mailbox_Instance_State_2_allocBuf__A
0c174320   ti_sysbios_knl_Mailbox_Instance_State_3_allocBuf__A
0c1e18d4   ti_sysbios_knl_Mailbox_Instance_State_dataQue__O
0c1e18d8   ti_sysbios_knl_Mailbox_Instance_State_dataSem__O
0c1e18dc   ti_sysbios_knl_Mailbox_Instance_State_freeQue__O
0c1e18e0   ti_sysbios_knl_Mailbox_Instance_State_freeSem__O
0c1e4428   ti_sysbios_knl_Mailbox_Module__root__V
0c125400   ti_sysbios_knl_Mailbox_Module_startup__E
0c125400   ti_sysbios_knl_Mailbox_Module_startup__F
0c1e18e4   ti_sysbios_knl_Mailbox_Object__count__C
0c132720   ti_sysbios_knl_Mailbox_Object__get__S
0c1e4a00   ti_sysbios_knl_Mailbox_Object__table__V
0c126b60   ti_sysbios_knl_Mailbox_pend__E
0c126c60   ti_sysbios_knl_Mailbox_post__E
0c133ce0   ti_sysbios_knl_Queue_Instance_init__F
0c1e4430   ti_sysbios_knl_Queue_Module__root__V
0c1e1530   ti_sysbios_knl_Queue_Object__DESC__C
0c1e16b8   ti_sysbios_knl_Queue_Object__PARAMS__C
0c12f880   ti_sysbios_knl_Queue_Object__create__S
0c132760   ti_sysbios_knl_Queue_Object__destruct__S
0c133d00   ti_sysbios_knl_Queue_Object__get__S
0c133d20   ti_sysbios_knl_Queue_empty__E
0c1e18e8   ti_sysbios_knl_Semaphore_A_badContext__C
0c1e18ec   ti_sysbios_knl_Semaphore_A_noEvents__C
0c1e18f0   ti_sysbios_knl_Semaphore_A_overflow__C
0c1e18f4   ti_sysbios_knl_Semaphore_Instance_State_pendQ__O
0c1327a0   ti_sysbios_knl_Semaphore_Instance_finalize__F
0c122b20   ti_sysbios_knl_Semaphore_Instance_init__F
0c1e18f8   ti_sysbios_knl_Semaphore_LM_pend__C
0c1e18fc   ti_sysbios_knl_Semaphore_LM_post__C
0c1e1900   ti_sysbios_knl_Semaphore_Module__diagsEnabled__C
0c1e1904   ti_sysbios_knl_Semaphore_Module__diagsIncluded__C
0c1e1908   ti_sysbios_knl_Semaphore_Module__diagsMask__C
0c1e1a9c   ti_sysbios_knl_Semaphore_Module__id__C
0c1e1aa0   ti_sysbios_knl_Semaphore_Module__loggerDefined__C
0c1e190c   ti_sysbios_knl_Semaphore_Module__loggerFxn2__C
0c1e1910   ti_sysbios_knl_Semaphore_Module__loggerFxn4__C
0c1e1914   ti_sysbios_knl_Semaphore_Module__loggerObj__C
0c1e4438   ti_sysbios_knl_Semaphore_Module__root__V
0c1e1550   ti_sysbios_knl_Semaphore_Object__DESC__C
0c1e144c   ti_sysbios_knl_Semaphore_Object__PARAMS__C
0c12f900   ti_sysbios_knl_Semaphore_Object__create__S
0c1327e0   ti_sysbios_knl_Semaphore_Object__delete__S
0c132820   ti_sysbios_knl_Semaphore_Object__destruct__S
0c12f980   ti_sysbios_knl_Semaphore_pendTimeout__I
0c109660   ti_sysbios_knl_Semaphore_pend__E
0c116ec0   ti_sysbios_knl_Semaphore_post__E
0c133d40   ti_sysbios_knl_Semaphore_reset__E
0c1e1918   ti_sysbios_knl_Swi_LD_end__C
0c1e191c   ti_sysbios_knl_Swi_LM_begin__C
0c1e1920   ti_sysbios_knl_Swi_LM_post__C
0c1e5088   ti_sysbios_knl_Swi_Module_State_0_readyQ__A
0c1e1924   ti_sysbios_knl_Swi_Module__diagsEnabled__C
0c1e1928   ti_sysbios_knl_Swi_Module__diagsIncluded__C
0c1e192c   ti_sysbios_knl_Swi_Module__diagsMask__C
0c1e1aa4   ti_sysbios_knl_Swi_Module__id__C
0c1e1aa8   ti_sysbios_knl_Swi_Module__loggerDefined__C
0c1e1930   ti_sysbios_knl_Swi_Module__loggerFxn1__C
0c1e1934   ti_sysbios_knl_Swi_Module__loggerFxn4__C
0c1e1938   ti_sysbios_knl_Swi_Module__loggerObj__C
0c1e4440   ti_sysbios_knl_Swi_Module__root__V
0c1e4448   ti_sysbios_knl_Swi_Module__state__V
0c131700   ti_sysbios_knl_Swi_Module_startup__E
0c131700   ti_sysbios_knl_Swi_Module_startup__F
0c1e193c   ti_sysbios_knl_Swi_Object__count__C
0c132860   ti_sysbios_knl_Swi_Object__get__S
0c1e5610   ti_sysbios_knl_Swi_Object__table__V
0c133d60   ti_sysbios_knl_Swi_disable__E
0c122c60   ti_sysbios_knl_Swi_post__E
0c126d60   ti_sysbios_knl_Swi_restoreHwi__E
0c118660   ti_sysbios_knl_Swi_run__I
0c11f2e0   ti_sysbios_knl_Swi_schedule__I
0c12fa00   ti_sysbios_knl_Swi_startup__E
0c1e1940   ti_sysbios_knl_Task_A_badPriority__C
0c1e1944   ti_sysbios_knl_Task_A_badTaskState__C
0c1e1948   ti_sysbios_knl_Task_A_badThreadType__C
0c1e194c   ti_sysbios_knl_Task_A_badTimeout__C
0c1e1950   ti_sysbios_knl_Task_A_noPendElem__C
0c1e1954   ti_sysbios_knl_Task_E_spOutOfBounds__C
0c1e1958   ti_sysbios_knl_Task_E_stackOverflow__C
0c174398   ti_sysbios_knl_Task_Instance_State_0_hookEnv__A
00820028   ti_sysbios_knl_Task_Instance_State_0_stack__A
0c1743a0   ti_sysbios_knl_Task_Instance_State_1_hookEnv__A
00820828   ti_sysbios_knl_Task_Instance_State_1_stack__A
0c1743a8   ti_sysbios_knl_Task_Instance_State_2_hookEnv__A
00822828   ti_sysbios_knl_Task_Instance_State_2_stack__A
0c1743b0   ti_sysbios_knl_Task_Instance_State_3_hookEnv__A
00823828   ti_sysbios_knl_Task_Instance_State_3_stack__A
0c1743b8   ti_sysbios_knl_Task_Instance_State_4_hookEnv__A
00824028   ti_sysbios_knl_Task_Instance_State_4_stack__A
0c1743c0   ti_sysbios_knl_Task_Instance_State_5_hookEnv__A
00826828   ti_sysbios_knl_Task_Instance_State_5_stack__A
0c1056c0   ti_sysbios_knl_Task_Instance_finalize__F
0c10b0e0   ti_sysbios_knl_Task_Instance_init__F
0c1e195c   ti_sysbios_knl_Task_LD_block__C
0c1e1960   ti_sysbios_knl_Task_LD_exit__C
0c1e1964   ti_sysbios_knl_Task_LD_ready__C
0c1e1968   ti_sysbios_knl_Task_LM_setPri__C
0c1e196c   ti_sysbios_knl_Task_LM_sleep__C
0c1e1970   ti_sysbios_knl_Task_LM_switch__C
0c1e4da0   ti_sysbios_knl_Task_Module_State_0_readyQ__A
0c1e1974   ti_sysbios_knl_Task_Module_State_inactiveQ__O
0c1e1978   ti_sysbios_knl_Task_Module_State_terminatedQ__O
0c1e197c   ti_sysbios_knl_Task_Module__diagsEnabled__C
0c1e1980   ti_sysbios_knl_Task_Module__diagsIncluded__C
0c1e1984   ti_sysbios_knl_Task_Module__diagsMask__C
0c1e1aac   ti_sysbios_knl_Task_Module__id__C
0c1e1ab0   ti_sysbios_knl_Task_Module__loggerDefined__C
0c1e1988   ti_sysbios_knl_Task_Module__loggerFxn2__C
0c1e198c   ti_sysbios_knl_Task_Module__loggerFxn4__C
0c1e1990   ti_sysbios_knl_Task_Module__loggerObj__C
0c1e4464   ti_sysbios_knl_Task_Module__root__V
0c1e446c   ti_sysbios_knl_Task_Module__state__V
0c111460   ti_sysbios_knl_Task_Module_startup__E
0c111460   ti_sysbios_knl_Task_Module_startup__F
0c1e1570   ti_sysbios_knl_Task_Object__DESC__C
0c1cd3c8   ti_sysbios_knl_Task_Object__PARAMS__C
0c1e1994   ti_sysbios_knl_Task_Object__count__C
0c12b600   ti_sysbios_knl_Task_Object__create__S
0c1328a0   ti_sysbios_knl_Task_Object__delete__S
0c133d80   ti_sysbios_knl_Task_Object__first__S
0c1328e0   ti_sysbios_knl_Task_Object__get__S
0c1e1998   ti_sysbios_knl_Task_Object__heap__C
0c133da0   ti_sysbios_knl_Task_Object__next__S
0c1e46e8   ti_sysbios_knl_Task_Object__table__V
0c133dc0   ti_sysbios_knl_Task_Params__init__S
0c133de0   ti_sysbios_knl_Task_SupportProxy_Module__startupDone__S
0c133960   ti_sysbios_knl_Task_SupportProxy_checkStack__E
0c133980   ti_sysbios_knl_Task_SupportProxy_getStackAlignment__E
0c12f280   ti_sysbios_knl_Task_SupportProxy_start__E
0c12ec80   ti_sysbios_knl_Task_SupportProxy_swap__E
0c1e199c   ti_sysbios_knl_Task_allBlockedFunc__C
0c131760   ti_sysbios_knl_Task_allBlockedFunction__I
0c122da0   ti_sysbios_knl_Task_blockI__E
0c11c6a0   ti_sysbios_knl_Task_checkStacks__E
0c1e19a0   ti_sysbios_knl_Task_defaultStackHeap__C
0c1e19a4   ti_sysbios_knl_Task_defaultStackSize__C
0c12fa80   ti_sysbios_knl_Task_deleteTerminatedTasksFunc__I
0c1e1ab4   ti_sysbios_knl_Task_deleteTerminatedTasks__C
0c133e00   ti_sysbios_knl_Task_disable__E
0c1317c0   ti_sysbios_knl_Task_enter__I
0c113e00   ti_sysbios_knl_Task_exit__E
0c133e20   ti_sysbios_knl_Task_getHookContext__E
0c1818d0   ti_sysbios_knl_Task_hooks__A
0c1e17e0   ti_sysbios_knl_Task_hooks__C
0c1e1ab8   ti_sysbios_knl_Task_initStackFlag__C
0c1e19a8   ti_sysbios_knl_Task_numConstructedTasks__C
0c1e19ac   ti_sysbios_knl_Task_numPriorities__C
0c11ac20   ti_sysbios_knl_Task_postInit__I
0c12fb00   ti_sysbios_knl_Task_restore__E
0c118880   ti_sysbios_knl_Task_schedule__I
0c133e40   ti_sysbios_knl_Task_self__E
0c133e60   ti_sysbios_knl_Task_setHookContext__E
0c10b4a0   ti_sysbios_knl_Task_setPri__E
0c132920   ti_sysbios_knl_Task_sleepTimeout__I
0c1129e0   ti_sysbios_knl_Task_sleep__E
0c118aa0   ti_sysbios_knl_Task_startup__E
0c11f460   ti_sysbios_knl_Task_unblockI__E
0c1e19b0   ti_sysbios_timers_timer64_Timer_A_notAvailable__C
0c1e19b4   ti_sysbios_timers_timer64_Timer_E_cannotSupport__C
0c1e4880   ti_sysbios_timers_timer64_Timer_Module_State_0_device__A
0c1e5108   ti_sysbios_timers_timer64_Timer_Module_State_0_gctrl__A
0c1e5188   ti_sysbios_timers_timer64_Timer_Module_State_0_handles__A
0c1e5208   ti_sysbios_timers_timer64_Timer_Module_State_0_intFreqs__A
0c1e19b8   ti_sysbios_timers_timer64_Timer_Module__diagsEnabled__C
0c1e19bc   ti_sysbios_timers_timer64_Timer_Module__diagsIncluded__C
0c1e19c0   ti_sysbios_timers_timer64_Timer_Module__diagsMask__C
0c1e1abc   ti_sysbios_timers_timer64_Timer_Module__id__C
0c1e44a0   ti_sysbios_timers_timer64_Timer_Module__root__V
0c132960   ti_sysbios_timers_timer64_Timer_Module__startupDone__F
0c132960   ti_sysbios_timers_timer64_Timer_Module__startupDone__S
0c1e44a8   ti_sysbios_timers_timer64_Timer_Module__state__V
0c104640   ti_sysbios_timers_timer64_Timer_Module_startup__E
0c104640   ti_sysbios_timers_timer64_Timer_Module_startup__F
0c1e53d0   ti_sysbios_timers_timer64_Timer_Object__table__V
0c133a40   ti_sysbios_timers_timer64_Timer_TimerSupportProxy_enable__E
0c1e19c4   ti_sysbios_timers_timer64_Timer_anyMask__C
0c1e19c8   ti_sysbios_timers_timer64_Timer_freqDivisor__C
0c12fb80   ti_sysbios_timers_timer64_Timer_getCount__E
0c12fb80   ti_sysbios_timers_timer64_Timer_getExpiredCounts__E
0c11ae00   ti_sysbios_timers_timer64_Timer_getFreq__E
0c12fc00   ti_sysbios_timers_timer64_Timer_getPeriod__E
0c1e19cc   ti_sysbios_timers_timer64_Timer_numLocalTimers__C
0c1e19d0   ti_sysbios_timers_timer64_Timer_numTimerDevices__C
0c133e80   ti_sysbios_timers_timer64_Timer_setNextTick__E
0c11c860   ti_sysbios_timers_timer64_Timer_setPeriodMicroSecs__E
0c11dc20   ti_sysbios_timers_timer64_Timer_start__E
0c1e1ac0   ti_sysbios_timers_timer64_Timer_startupNeeded__C
0c129920   ti_sysbios_timers_timer64_Timer_startup__E
0c12b6c0   ti_sysbios_timers_timer64_Timer_stop__E
0c1814d0   tpseudo
0c10e9f0   tw_gen
0c1e831c   uRecvCnt
0c1817ac   udps
0c12fc80   unlink
0c1817d0   upseudo
0082f648   vectId
0c181810   vlan_mcb
0c133ea0   vsprintf
0c12da40   write
0c0fb8a0   writeNandPage
0c131820   writemsg
0c1e19d4   xdc_runtime_Assert_E_assertFailed__C
0c12dae0   xdc_runtime_Assert_raise__I
0c1e19d8   xdc_runtime_Core_A_initializedParams__C
0c1e19dc   xdc_runtime_Core_Module__diagsEnabled__C
0c1e19e0   xdc_runtime_Core_Module__diagsIncluded__C
0c1e19e4   xdc_runtime_Core_Module__diagsMask__C
0c1e1ac4   xdc_runtime_Core_Module__id__C
0c12fd00   xdc_runtime_Core_assignLabel__I
0c12fd80   xdc_runtime_Core_assignParams__I
0c114080   xdc_runtime_Core_createObject__I
0c126f60   xdc_runtime_Core_deleteObject__I
0c1e19e8   xdc_runtime_Error_E_generic__C
0c1e19ec   xdc_runtime_Error_E_memory__C
0c1e19f0   xdc_runtime_Error_Module__diagsEnabled__C
0c1e19f4   xdc_runtime_Error_Module__diagsIncluded__C
0c1e19f8   xdc_runtime_Error_Module__diagsMask__C
0c1e1ac8   xdc_runtime_Error_Module__loggerDefined__C
0c1e19fc   xdc_runtime_Error_Module__loggerFxn8__C
0c1e1a00   xdc_runtime_Error_Module__loggerObj__C
0c1e44bc   xdc_runtime_Error_Module__state__V
0c1329a0   xdc_runtime_Error_check__E
0c1329a0   xdc_runtime_Error_check__F
0c133ec0   xdc_runtime_Error_getMsg__E
0c133ec0   xdc_runtime_Error_getMsg__F
0c1329e0   xdc_runtime_Error_init__E
0c1329e0   xdc_runtime_Error_init__F
0c1e1acc   xdc_runtime_Error_maxDepth__C
0c1e1a04   xdc_runtime_Error_policy__C
0c129a00   xdc_runtime_Error_print__E
0c129a00   xdc_runtime_Error_print__F
0c1e1a08   xdc_runtime_Error_raiseHook__C
0c114300   xdc_runtime_Error_raiseX__E
0c114300   xdc_runtime_Error_raiseX__F
0c133ee0   xdc_runtime_Gate_enterSystem__E
0c133ee0   xdc_runtime_Gate_enterSystem__F
0c132a20   xdc_runtime_Gate_leaveSystem__E
0c132a20   xdc_runtime_Gate_leaveSystem__F
0c1e1a0c   xdc_runtime_IFilterLogger_Interface__BASE__C
0c1e1a10   xdc_runtime_IGateProvider_Interface__BASE__C
0c1e1a14   xdc_runtime_IHeap_Interface__BASE__C
0c1e1a18   xdc_runtime_ILogger_Interface__BASE__C
0c1e1a1c   xdc_runtime_IModule_Interface__BASE__C
0c1e1a20   xdc_runtime_Log_L_error__C
0c1e1a24   xdc_runtime_LoggerBuf_E_badLevel__C
0c132a60   xdc_runtime_LoggerBuf_Handle__label__S
0c1743c8   xdc_runtime_LoggerBuf_Instance_State_0_entryArr__A
0c132aa0   xdc_runtime_LoggerBuf_Instance_finalize__F
0c12b780   xdc_runtime_LoggerBuf_Instance_init__F
0c133f40   xdc_runtime_LoggerBuf_Module_GateProxy_enter__E
0c133f60   xdc_runtime_LoggerBuf_Module_GateProxy_leave__E
0c133b20   xdc_runtime_LoggerBuf_Module_GateProxy_query__E
0c1e1238   xdc_runtime_LoggerBuf_Module__FXNS__C
0c1e1a28   xdc_runtime_LoggerBuf_Module__gateObj__C
0c1e1ad0   xdc_runtime_LoggerBuf_Module__id__C
0c1e44c0   xdc_runtime_LoggerBuf_Module__root__V
0c1e44c8   xdc_runtime_LoggerBuf_Module__state__V
0c12db80   xdc_runtime_LoggerBuf_Module_startup__E
0c12db80   xdc_runtime_LoggerBuf_Module_startup__F
0c1e1590   xdc_runtime_LoggerBuf_Object__DESC__C
0c1e13b8   xdc_runtime_LoggerBuf_Object__PARAMS__C
0c1e1a2c   xdc_runtime_LoggerBuf_Object__count__C
0c12b840   xdc_runtime_LoggerBuf_Object__create__S
0c132ae0   xdc_runtime_LoggerBuf_Object__delete__S
0c132b20   xdc_runtime_LoggerBuf_Object__get__S
0c1e5690   xdc_runtime_LoggerBuf_Object__table__V
0c133a20   xdc_runtime_LoggerBuf_TimestampProxy_get64__E
0c133f80   xdc_runtime_LoggerBuf_disable__E
0c133f80   xdc_runtime_LoggerBuf_disable__F
0c133fa0   xdc_runtime_LoggerBuf_enable__E
0c133fa0   xdc_runtime_LoggerBuf_enable__F
0c1e1ad4   xdc_runtime_LoggerBuf_filterByLevel__C
0c12fe00   xdc_runtime_LoggerBuf_filterOutEvent__I
0c127060   xdc_runtime_LoggerBuf_getFilterLevel__E
0c127060   xdc_runtime_LoggerBuf_getFilterLevel__F
0c125520   xdc_runtime_LoggerBuf_setFilterLevel__E
0c125520   xdc_runtime_LoggerBuf_setFilterLevel__F
0c1e1a30   xdc_runtime_LoggerBuf_statusLogger__C
0c132b60   xdc_runtime_LoggerBuf_write0__E
0c132b60   xdc_runtime_LoggerBuf_write0__F
0c132ba0   xdc_runtime_LoggerBuf_write1__E
0c132ba0   xdc_runtime_LoggerBuf_write1__F
0c132be0   xdc_runtime_LoggerBuf_write2__E
0c132be0   xdc_runtime_LoggerBuf_write2__F
0c11ddc0   xdc_runtime_LoggerBuf_write4__E
0c11ddc0   xdc_runtime_LoggerBuf_write4__F
0c117100   xdc_runtime_LoggerBuf_write8__E
0c117100   xdc_runtime_LoggerBuf_write8__F
0c133b20   xdc_runtime_Main_Module_GateProxy_query__E
0c133fc0   xdc_runtime_Memory_HeapProxy_alloc__E
0c133fe0   xdc_runtime_Memory_HeapProxy_free__E
0c1e1ad8   xdc_runtime_Memory_Module__id__C
0c1e44d0   xdc_runtime_Memory_Module__state__V
0c129ae0   xdc_runtime_Memory_alloc__E
0c129ae0   xdc_runtime_Memory_alloc__F
0c131880   xdc_runtime_Memory_calloc__E
0c131880   xdc_runtime_Memory_calloc__F
0c1e1a34   xdc_runtime_Memory_defaultHeapInstance__C
0c132c20   xdc_runtime_Memory_free__E
0c132c20   xdc_runtime_Memory_free__F
0c134000   xdc_runtime_Memory_getMaxDefaultTypeAlign__E
0c134000   xdc_runtime_Memory_getMaxDefaultTypeAlign__F
0c1e44d4   xdc_runtime_Registry_Module__state__V
0c132c60   xdc_runtime_Registry_findById__E
0c132c60   xdc_runtime_Registry_findById__F
0c1e44dc   xdc_runtime_Startup_Module__state__V
00000001   xdc_runtime_Startup__EXECFXN__C
00000001   xdc_runtime_Startup__RESETFXN__C
0c1e1a38   xdc_runtime_Startup_execImpl__C
0c127160   xdc_runtime_Startup_exec__E
0c127160   xdc_runtime_Startup_exec__F
0c134020   xdc_runtime_Startup_exec__I
0c1e1780   xdc_runtime_Startup_firstFxns__A
0c1e17e8   xdc_runtime_Startup_firstFxns__C
0c1e17f0   xdc_runtime_Startup_lastFxns__A
0c1e17f8   xdc_runtime_Startup_lastFxns__C
0c1e1a3c   xdc_runtime_Startup_maxPasses__C
0c12d540   xdc_runtime_Startup_reset__I
0c1e15b0   xdc_runtime_Startup_sfxnRts__A
0c1e1a40   xdc_runtime_Startup_sfxnRts__C
0c1e11f8   xdc_runtime_Startup_sfxnTab__A
0c1e1a44   xdc_runtime_Startup_sfxnTab__C
0c114f00   xdc_runtime_Startup_startMods__I
0c1745c8   xdc_runtime_SysMin_Module_State_0_outbuf__A
0c1e44e4   xdc_runtime_SysMin_Module__state__V
0c1318e0   xdc_runtime_SysMin_Module_startup__E
0c1318e0   xdc_runtime_SysMin_Module_startup__F
0c12dc20   xdc_runtime_SysMin_abort__E
0c12dc20   xdc_runtime_SysMin_abort__F
0c1e1a48   xdc_runtime_SysMin_bufSize__C
0c131940   xdc_runtime_SysMin_exit__E
0c131940   xdc_runtime_SysMin_exit__F
0c1e1adc   xdc_runtime_SysMin_flushAtExit__C
0c12dcc0   xdc_runtime_SysMin_flush__E
0c12dcc0   xdc_runtime_SysMin_flush__F
0c1e1a4c   xdc_runtime_SysMin_outputFunc__C
0c1319a0   xdc_runtime_SysMin_output__I
0c12dd60   xdc_runtime_SysMin_putch__E
0c12dd60   xdc_runtime_SysMin_putch__F
0c134040   xdc_runtime_SysMin_ready__E
0c134040   xdc_runtime_SysMin_ready__F
0c134060   xdc_runtime_System_Module_GateProxy_enter__E
0c134080   xdc_runtime_System_Module_GateProxy_leave__E
0c133b20   xdc_runtime_System_Module_GateProxy_query__E
0c1e5778   xdc_runtime_System_Module_State_0_atexitHandlers__A
0c1e1a50   xdc_runtime_System_Module__gateObj__C
0c1e44f0   xdc_runtime_System_Module__state__V
0c1340a0   xdc_runtime_System_Module_startup__E
0c1340a0   xdc_runtime_System_Module_startup__F
0c12dc20   xdc_runtime_System_SupportProxy_abort__E
0c131940   xdc_runtime_System_SupportProxy_exit__E
0c12dcc0   xdc_runtime_System_SupportProxy_flush__E
0c12dd60   xdc_runtime_System_SupportProxy_putch__E
0c134040   xdc_runtime_System_SupportProxy_ready__E
0c132ca0   xdc_runtime_System_abort__E
0c132ca0   xdc_runtime_System_abort__F
0c132ce0   xdc_runtime_System_aprintf__E
0c131a00   xdc_runtime_System_aprintf_va__E
0c131a00   xdc_runtime_System_aprintf_va__F
0c12fe80   xdc_runtime_System_atexit__E
0c12fe80   xdc_runtime_System_atexit__F
0c131a00   xdc_runtime_System_avprintf__E
0c131a00   xdc_runtime_System_avprintf__F
0c0fd4a0   xdc_runtime_System_doPrint__I
0c1340c0   xdc_runtime_System_exit__E
0c1340c0   xdc_runtime_System_exit__F
0c1e1a54   xdc_runtime_System_extendFxn__C
0c12dcc0   xdc_runtime_System_flush__E
0c12dcc0   xdc_runtime_System_flush__F
0c12b900   xdc_runtime_System_formatNum__I
0c1340e0   xdc_runtime_System_lastFxn__I
0c1e1a58   xdc_runtime_System_maxAtexitHandlers__C
0c115160   xdc_runtime_System_printfExtend__I
0c132d20   xdc_runtime_System_printf__E
0c131a60   xdc_runtime_System_printf_va__E
0c131a60   xdc_runtime_System_printf_va__F
0c12ff00   xdc_runtime_System_rtsExit__I
0c134100   xdc_runtime_System_sprintf_va__E
0c134100   xdc_runtime_System_sprintf_va__F
0c131a60   xdc_runtime_System_vprintf__E
0c131a60   xdc_runtime_System_vprintf__F
0c134100   xdc_runtime_System_vsprintf__E
0c134100   xdc_runtime_System_vsprintf__F
0c1e44fc   xdc_runtime_Text_Module__state__V
0c1e1ae0   xdc_runtime_Text_charCnt__C
0c1dc078   xdc_runtime_Text_charTab__A
0c1e1a5c   xdc_runtime_Text_charTab__C
0c131ac0   xdc_runtime_Text_cordText__E
0c131ac0   xdc_runtime_Text_cordText__F
0c1e1ae4   xdc_runtime_Text_isLoaded__C
0c1e1a60   xdc_runtime_Text_nameEmpty__C
0c1e1a64   xdc_runtime_Text_nameStatic__C
0c1e1a68   xdc_runtime_Text_nameUnknown__C
0c1e0740   xdc_runtime_Text_nodeTab__A
0c1e1a6c   xdc_runtime_Text_nodeTab__C
0c12ff80   xdc_runtime_Text_printVisFxn__I
0c125640   xdc_runtime_Text_putLab__E
0c125640   xdc_runtime_Text_putLab__F
0c127260   xdc_runtime_Text_putMod__E
0c127260   xdc_runtime_Text_putMod__F
0c11f5e0   xdc_runtime_Text_putSite__E
0c11f5e0   xdc_runtime_Text_putSite__F
0c1e1ae8   xdc_runtime_Text_registryModsLastId__C
0c132d60   xdc_runtime_Text_ropeText__E
0c132d60   xdc_runtime_Text_ropeText__F
0c1e1aec   xdc_runtime_Text_unnamedModsLastId__C
0c127360   xdc_runtime_Text_visitRope2__I
0c1e1a70   xdc_runtime_Text_visitRopeFxn__C
0c134120   xdc_runtime_Text_visitRope__I
0c130000   xdc_runtime_Text_xprintf__I
0c0fcb00   xmc_setup


GLOBAL SYMBOLS: SORTED BY Symbol Address 

address    name
--------   ----
00000000   _argsize
00000001   __TI_args_main
00000001   xdc_runtime_Startup__EXECFXN__C
00000001   xdc_runtime_Startup__RESETFXN__C
000001c0   Raco_Vec_C6678_Size
00002000   __TI_STACK_SIZE
00800000   IFFT_Echo_L2
00820000   SRIO_INTC_NUM
00820004   IsEchoDataReady
00820008   Echo_Procd_Index
0082000c   Echo_Send_Index
00820010   LocalSynFlagx
00820020   pFlagFromCore0
00820024   pFlagToCore0x
00820028   ti_sysbios_knl_Task_Instance_State_0_stack__A
00820828   ti_sysbios_knl_Task_Instance_State_1_stack__A
00822828   ti_sysbios_knl_Task_Instance_State_2_stack__A
00823828   ti_sysbios_knl_Task_Instance_State_3_stack__A
00824028   ti_sysbios_knl_Task_Instance_State_4_stack__A
00826828   ti_sysbios_knl_Task_Instance_State_5_stack__A
00827828   LocalFlag
00827830   pFlag_Master
00827880   gHostDesc
0082b880   _stack
0082d880   __TI_STACK_END
0082d880   gPAInst
0082d980   gMemL2Ram
0082dd68   gMemL3Ram
0082ed80   Radar_qmssLObj
0082eea0   hostDesc
0082f4a0   Radar_qmssLObjIsValid
0082f4a8   EventHandler
0082f598   intcContext
0082f630   intcObj
0082f638   hintc
0082f63c   state
0082f640   EventRecord
0082f648   vectId
0082f680   gPaTxQHnd
0082f6a4   gTxReturnQHnd
0082f6a8   gTxFreeQHnd
0082f6ac   gRxFreeQHnd
0082f6b0   gRxQHnd
0082f6b4   gPaCfgCmdRespQHnd
0082f6b8   gRxFlowHnd
0082f6c0   gPaL2Handles
0082f6e8   gPaL3Handles
0082f738   gPaL4Handles
0082f880   gHiPriAccumList
0082f980   gAccChannelNum
0082f984   gTxPort
0082f988   gTxCounter
0082f98c   gRxCounter
0082f990   gTxDropCounter
0082f994   gRxDropCounter
0082f9a0   gGlobalFreeQHnd
0082f9a8   gPassCpdmaTxChanHnd
0082f9d0   gPassCpdmaRxChanHnd
0082fa30   gPassCpdmaHnd
0082fa34   gPAInstHnd
0082fa38   gQPopErrorCounter
0082fa3c   gQPushErrorCounter
0c000000   __ASM__
0c000058   __ISA__
0c000070   __PLAT__
0c0000a0   __TARG__
0c0000c8   __TRDR__
0c002f24   C6678_Srio_Init
0c002fb4   C6678_Srio_Close
0c002fd0   C6678_Srio_Dio_Read
0c003144   C6678_Srio_Dio_Write
0c003338   C6678_Srio_Dio_Doorbell
0c003484   C6678_Srio_Maitain_Read
0c003580   C6678_Srio_Maitain_Write
0c003680   C6678_Srio_DoorbellInt_Hookup
0c0036b0   C6678_Srio_DoorbellInt_Info
0c0038f0   C6678_Srio_DoorbellInt_Clear
0c003c90   C6678_Srio_Over_Hookup
0c003d08   C6678_Srio_Wait_Over
0c003da0   C6678_Srio_Over_Int_Clear
0c003dd0   C6678_Srio_Type9_Recv
0c003e84   C6678_Srio_Type9_Send
0c003f54   C6678_Srio_Type11_Send
0c004034   C6678_Srio_Type11_Recv
0c0040d8   C6678_Srio_Navigator_Init
0c004108   C6678_Srio_Bind
0c0041d4   C6678_Srio_Dio_ReadandDoorbell
0c004358   C6678_Srio_Dio_WriteandDoorbell
0c004560   C6678_Srio_Type9Type11_rxCompletionIsr
0c0045c0   Osal_dataBufferInitMemory
0c0046c0   Osal_DataBufferMalloc
0c0047b4   Osal_DataBufferFree
0c004874   Osal_CacheInvalidate
0c0048a4   Osal_CacheWriteback
0c0048c8   Osal_srioEndDescriptorAccess
0c0048e4   Srio_listAdd
0c0049a8   Srio_listCat
0c004a98   Srio_listRemove
0c004b34   Srio_listRemoveNode
0c004c18   Srio_listGetHead
0c004c30   Srio_listGetNext
0c004c48   enable_srio
0c004ca4   Osal_srioCsEnter
0c004cc4   Osal_srioCsExit
0c004cd4   Srio_Bind_DIO
0c004da4   Srio_Navigator_Init
0c0053c8   C6678_Qmss_Init
0c005484   C6678_QMSS_Core_MemInsert
0c005518   Radar_Qmss_init
0c0057ec   Radar_Qmss_start
0c00584c   Radar_Qmss_getMemoryRegionCfg
0c005a30   Radar_Qmss_insertMemoryRegion
0c006450   Radar_Qmss_initDescriptor
0c00656c   Radar_Qmss_queueOpen
0c0065b8   Radar_Qmss_queueOpenInRange
0c0066b0   Radar_Qmss_queueClose
0c006740   Radar_Qmss_getQueueThreshold
0c006770   Radar_Qmss_setQueueThreshold
0c0067f8   Radar_Qmss_getStarvationCount
0c006844   Radar_Qmss_getQueueThresholdStatus
0c00688c   Radar_Qmss_getQueueNumber
0c0068b4   Radar_Qmss_getQueueHandle
0c006904   Radar_Qmss_downloadFirmware
0c006950   Radar_Qmss_internaldownloadFirmware
0c006b10   Radar_Qmss_setEoiVector
0c006c18   Radar_Qmss_ackInterrupt
0c006c70   Radar_Qmss_getVersion
0c006c7c   Radar_Qmss_getVersionStr
0c006c88   Radar_Qmss_getMemRegQueueHandle
0c006ccc   Radar_Qmss_getMemRegDescSize
0c006d0c   Radar_Qmss_internalQueueOpen
0c006e84   Radar_qmss_wait_qos_command_buf
0c006eb0   Radar_Qmss_setQosQueueBase
0c006f0c   Radar_Qmss_getQosQueueBase
0c006f68   Radar_Qmss_configureQosTimer
0c006fc0   Radar_Qmss_enableQosCluster
0c007020   Radar_Qmss_disableQosCluster
0c007080   Radar_Qmss_configureQosQueue
0c0071f4   Radar_Qmss_configureQosClusterTB
0c0078ec   Radar_Qmss_configureQosClusterRR
0c007fd0   Radar_Qmss_configureQosCluster
0c008018   Radar_Qmss_getQosQueueForwardPktStats
0c008068   Radar_Qmss_getQosQueueDroppedPktStats
0c0080b4   Radar_Qmss_resetQosQueueStats
0c008128   Radar_Qmss_programAccumulator
0c008328   Radar_Qmss_disableAccumulator
0c00842c   Radar_Qmss_configureAccTimer
0c0084d0   Radar_Qmss_programReclaimQueue
0c008570   Radar_Qmss_programDiversionQueue
0c008638   Radar_Osal_qmssBeginMemAccess
0c008684   Radar_Osal_qmssEndMemAccess
0c0086c8   Radar_Qmss_queuePush
0c008770   Radar_Qmss_queuePushDesc
0c0087a0   Radar_Qmss_queuePushDescSize
0c0087d4   Radar_Qmss_queuePop
0c008808   Radar_Qmss_queuePopDescSize
0c008864   Radar_Qmss_getQueuePushHandle
0c008890   Radar_Qmss_queueDivert
0c008918   Radar_Qmss_queueEmpty
0c008948   Radar_Qmss_getQueueEntryCount
0c008978   Radar_Qmss_getQueueByteCount
0c0089ac   Radar_Qmss_getQueuePacketSize
0c0089d8   l2_global_address
0c008a18   Radar_Osal_qmssCsEnter
0c008a38   Radar_Osal_qmssCsExit
0c008a4c   WaitInit
0c009a50   C6678_Ddr3_Init
0c009bb8   C6678_Ddr3_MapSelect
0c009d50   Radar_xmc_setup
0c009d98   DDR3Init800m
0c00a178   DDR3Init600m_C6678_4DSP_DDR3_VPX_v2_0
0c00a5e0   DDR3Init700m_C6678_4DSP_DDR3_VPX_v2_0
0c00aa54   DDR3Init800m_C6678_4DSP_DDR3_VPX_v2_0
0c00aeb4   DDR3Init1000m
0c00b2d8   DDR3Init1000m_C6678_4DSP_DDR3_VPX_v2_0
0c00b754   Radar_SetDDR3PllConfig
0c00b8d4   DDR3Init800m_1600
0c00bcc4   DDR3Init1000m_1600
0c00c348   C6678_Cppi_init
0c00c370   Radar_Cppi_init
0c00c5e4   Radar_Cppi_exit
0c00c64c   Radar_Cppi_open
0c00c914   Radar_Cppi_close
0c00c9cc   Radar_Cppi_txChannelOpen
0c00cef0   Radar_Cppi_rxChannelOpen
0c00d2e0   Radar_Cppi_channelEnable
0c00d384   Radar_Cppi_channelDisable
0c00d3f8   Radar_Cppi_channelTeardown
0c00d510   Radar_Cppi_channelClose
0c00d6c4   Radar_Cppi_channelPause
0c00d76c   Radar_Cppi_channelStatus
0c00d7ec   Radar_Cppi_configureRxFlow
0c00e224   Radar_Cppi_closeRxFlow
0c00e350   Radar_Cppi_getChannelNumber
0c00e36c   Radar_Cppi_getFlowId
0c00e384   Radar_Cppi_setCpdmaLoopback
0c00e3f4   Radar_Cppi_getCpdmaLoopback
0c00e434   Radar_Cppi_getVersion
0c00e444   Radar_Cppi_getVersionStr
0c00e450   Radar_Cppi_initDescriptor
0c00e7ac   Radar_cppi_list_add
0c00e820   Radar_cppi_list_cat
0c00e8a0   Radar_cppi_list_remove
0c00e904   Radar_cppi_list_remove_node
0c00e98c   Radar_cppi_list_get_head
0c00e9a4   Radar_cppi_list_get_next
0c00e9b8   Radar_Osal_cppiBeginMemAccess
0c00ea04   Radar_Osal_cppiEndMemAccess
0c00ea48   Radar_Cppi_setDescType
0c00ea74   Radar_Cppi_getDescType
0c00ea90   Radar_Cppi_getDescError
0c00eaac   Radar_Cppi_setData
0c00eb28   Radar_Cppi_getData
0c00eba0   Radar_Cppi_setDataLen
0c00ebe0   Radar_Cppi_getDataLen
0c00ec08   Radar_Cppi_linkNextBD
0c00ec28   Radar_Cppi_getNextBD
0c00ec40   Radar_Cppi_setOriginalBufInfo
0c00ec88   Radar_Cppi_getOriginalBufInfo
0c00ecc4   Radar_Cppi_setPacketType
0c00ecfc   Radar_Cppi_getPacketType
0c00ed18   Radar_Cppi_setTimeStamp
0c00ed64   Radar_Cppi_getTimeStamp
0c00edb8   Radar_Cppi_setSoftwareInfo
0c00ee20   Radar_Cppi_getSoftwareInfo
0c00ee74   Radar_Cppi_setSoftwareInfo0
0c00eec0   Radar_Cppi_getSoftwareInfo0
0c00eee8   Radar_Cppi_setSoftwareInfo1
0c00ef18   Radar_Cppi_getSoftwareInfo1
0c00ef44   Radar_Cppi_setSoftwareInfo2
0c00ef74   Radar_Cppi_getSoftwareInfo2
0c00efa0   Radar_Cppi_setPSData
0c00f04c   Radar_Cppi_getPSData
0c00f124   Radar_Cppi_setPSLen
0c00f154   Radar_Cppi_getPSLen
0c00f174   Radar_Cppi_setPacketLen
0c00f1c8   Radar_Cppi_getPacketLen
0c00f1f4   Radar_Cppi_setPSLocation
0c00f224   Radar_Cppi_getPSLocation
0c00f240   Radar_Cppi_setPSFlags
0c00f27c   Radar_Cppi_getPSFlags
0c00f298   Radar_Cppi_setOrigBufferpooIndex
0c00f2d0   Radar_Cppi_getOrigBufferpooIndex
0c00f2ec   Radar_Cppi_incrementRefCount
0c00f33c   Radar_Cppi_decrementRefCount
0c00f390   Radar_Cppi_getRefCount
0c00f3b0   Radar_Cppi_setDataOffset
0c00f3e4   Radar_Cppi_getDataOffset
0c00f400   Radar_Cppi_setReturnPolicy
0c00f42c   Radar_Cppi_getReturnPolicy
0c00f448   Radar_Cppi_setReturnPushPolicy
0c00f474   Radar_Cppi_getReturnPushPolicy
0c00f490   Radar_Cppi_setReturnQueue
0c00f4f0   Radar_Cppi_getReturnQueue
0c00f524   Radar_Cppi_setTag
0c00f5c8   Radar_Cppi_getTag
0c00f618   Radar_Osal_cppiCsEnter
0c00f638   Radar_Osal_cppiCsExit
0c00f660   IPTxPacket
0c010000   Srio_Recv_L3
0c0700c0   NetSendFrames_L3
0c0d3900   cFFTTwidTable_L3
0c0f3900   nimu_gettxdrops
0c0f390c   nimu_getrxdrops
0c0f3918   emac_display_linkstatus
0c0f3978   Verify_Init
0c0f3b24   Switch_update_addr
0c0f3b6c   Setup_Tx
0c0f3e08   Setup_Rx
0c0f4208   Init_Switch
0c0f42e4   Init_PASS
0c0f432c   Init_MDIO
0c0f4330   Init_MAC
0c0f4464   Init_Cpsw
0c0f4698   Add_MACAddress
0c0f4e78   EmacRxPktISR
0c0f5740   serial_num_isvalid
0c0f5770   platform_write_configure
0c0f5788   platform_uart_write
0c0f5798   platform_write
0c0f5898   platform_uart_set_baudrate
0c0f58c4   platform_delay
0c0f5904   platform_uart_read
0c0f5964   platform_uart_init
0c0f5980   platform_get_phy_addr
0c0f5984   platform_phy_link_status
0c0f59d0   platform_offset_to_blocknpage
0c0f5a90   platform_led
0c0f5ab8   platform_get_coreid
0c0f5ac8   platform_internal_memory_test
0c0f5f04   platform_init
0c0f61c8   platform_get_macaddr
0c0f6224   platform_device_open
0c0f632c   platform_device_read
0c0f6448   platform_device_close
0c0f6548   platform_get_info
0c0f67f8   platform_get_emac_info
0c0f6850   platform_external_memory_test
0c0f69c0   platform_device_write_spare_data
0c0f6a30   platform_blocknpage_to_offset
0c0f6ac8   platform_device_write
0c0f6eb8   platform_device_read_spare_data
0c0f6f2c   platform_device_mark_block_bad
0c0f7020   platform_device_erase_block
0c0f70b4   platform_delaycycles
0c0f70e0   Convert_CoreLocal2GlobalAddr
0c0f7160   TcpInput
0c0f8b40   TcpOutput
0c0f9fe8   res_mgr_qmss_get_freeq
0c0f9ff8   QMSS_QPOP
0c0fa090   QMSS_QPUSH
0c0fa108   QMSS_QPUSHDESCSIZE
0c0fa178   res_mgr_init_qmss
0c0fa390   res_mgr_stop_qmss
0c0fa3b0   res_mgr_cppi_get_passhandle
0c0fa3c4   res_mgr_init_cppi
0c0fa62c   res_mgr_stop_cppi
0c0fa818   res_mgr_get_painstance
0c0fa82c   res_mgr_init_pass
0c0faa80   IPRxPacket
0c0fb690   NandReadSpareArea
0c0fb750   NandWriteDataBytes
0c0fb8a0   writeNandPage
0c0fbc0c   readNandPage
0c0fbec4   nandInit
0c0fbecc   nandFlashBlockErase
0c0fbf88   NandWriteSpareArea
0c0fc064   NandGetDetails
0c0fc140   SrioDevice_init
0c0fcb00   xmc_setup
0c0fcb18   prog_pll1_values
0c0fcc24   SetPaPllConfig
0c0fcd2c   SetDDR3PllConfig
0c0fce18   PowerUpDomains
0c0fcf30   DDR3Init
0c0fd174   CorePllcHwSetup
0c0fd3ac   CorePllcGetHwSetup
0c0fd4a0   xdc_runtime_System_doPrint__I
0c0fde40   DSPF_sp_ifftSPxSP
0c0fe680   Qmss_insertMemoryRegion
0c0fee60   SockSet
0c0ff648   C6678_Pll_Init
0c0ff6e4   C6678_Pll_Delay
0c0ff718   Radar_CorePllcGetHwSetup
0c0ff80c   Radar_CorePllcHwSetup
0c0ffa80   Radar_SetPaPllConfig
0c0ffc64   Radar_prog_pll1_values
0c0ffe00   i2cEepromWriteBlock
0c0fffcc   i2cEepromWriteByteAddr
0c1000d0   i2cEepromWrite
0c100190   i2cEepromRead
0c1002b0   i2cEepromMacWrite
0c1003e4   i2cEepromMacRead
0c100580   ti_sysbios_family_c64p_Exception_handler__I
0c100d00   Pa_addMac
0c101654   C6678_CoreInt_Init
0c1016d8   C6678_CoreInt_Set
0c1017ac   C6678_CoreInt_Clear
0c1017c0   C6678_CoreInt_Manual_trigger
0c1017d4   C6678_CoreInt_Close
0c10180c   C6678_ChipInt_Init
0c1018a8   C6678_ChipInt_Set
0c10192c   C6678_ChipInt_Clear
0c101958   C6678_ChipInt_Manual_trigger
0c1019ec   C6678_Int_SaveInterrputRegInfo
0c101a64   C6678_Int_RestoreInterrputRegInfo
0c101ab0   C6678_Int_GlobalDisable
0c101acc   C6678_Int_GlobalEnable
0c101f70   C6678_ConfigSerdes
0c101fec   C6678_Init_SGMII_Force
0c10204c   C6678_Init_SGMII_Auto
0c1020c8   C6678_Init_SGMII
0c102180   Cppi_configureRxFlow
0c102e40   ti_sysbios_heaps_HeapMem_free__E
0c1034a0   ti_sysbios_heaps_HeapMem_alloc__E
0c103ac0   IPReasm
0c104080   __c6xabi_divd
0c104640   ti_sysbios_timers_timer64_Timer_Module_startup__E
0c104640   ti_sysbios_timers_timer64_Timer_Module_startup__F
0c104c00   ICMPInput
0c1051a0   SockNew
0c1056c0   ti_sysbios_knl_Task_Instance_finalize__F
0c105bc0   SignalProcess
0c105cb4   CopyHeadInfo
0c105e44   Process
0c106014   SendDataByNet
0c1060a0   UdpInput
0c106580   Cppi_txChannelOpen
0c106a40   LLIRxPacket
0c106ee0   SockRecv
0c107380   Srio_processReceivedBD
0c107e28   C6678_Sem2_Acquire
0c107ee8   C6678_Sem2_Release
0c107f48   C6678_Sem2_GetSatus
0c107f60   C6678_Sem2_IntcStatusClear
0c107fe8   C6678_Sem2_MultiCore_Syn
0c108364   C6678_XMC_PrefetchBuffer_Inv
0c10836c   C6678_Power_UpDomains
0c1083cc   C6678_Ecc_Enable
0c1083e0   C6678_XMC_MapSelect
0c108580   spi_xfer
0c1086d4   spi_write_word
0c108734   spi_release
0c108750   spi_read_word
0c1087c4   spi_cmd_write
0c1087f8   spi_cmd_read
0c108830   spi_cmd
0c108878   spi_claim
0c1089e0   Cppi_rxChannelOpen
0c109660   ti_sysbios_knl_Semaphore_pend__E
0c109a60   Cppi_initDescriptor
0c109e20   SockSend
0c10a1e0   Srio_sockSend_DIO
0c10a5a0   TcpTimeoutCheck
0c10a960   CSL_intcHwControl
0c10ada4   nor_write
0c10aeb8   nor_read
0c10af2c   nor_init
0c10af94   nor_get_details
0c10b000   nor_erase
0c10b0e0   ti_sysbios_knl_Task_Instance_init__F
0c10b4a0   ti_sysbios_knl_Task_setPri__E
0c10b860   NIMUIoctl
0c10bc00   RtCreate
0c10bfa0   SBRead
0c10c340   _mmCheck
0c10c6e0   fputs
0c10ca80   IGMPInput
0c10ce00   SockConnect
0c10d180   SockNotify
0c10d500   dhcpPacketProcess
0c10d880   fpgaReadConfigurationRegister
0c10d8f8   getFpgaDevID
0c10d938   getBoardVersion
0c10d978   fpgaWriteConfigurationRegister
0c10d9f0   fpgaGetUserSwitch
0c10d9f0   platform_get_switch_state
0c10da20   fpgaGetAMCDetect
0c10da44   fpgaEnableNorWriteProtect
0c10da70   fpgaEnableNandWriteProtect
0c10daa0   fpgaEnableEepromWriteProtect
0c10dacc   fpgaDisableNorWriteProtect
0c10daf8   fpgaDisableNandWriteProtect
0c10db28   fpgaDisableEepromWriteProtect
0c10db54   fpgaControlUserLEDs
0c10dc00   LLITxIpPacket
0c10e0c0   C6678_Emif16_Fpga_Init
0c10e0e8   C6678_Emif16_Fpga_ReadByte
0c10e168   C6678_Emif16_Fpga_WriteByte
0c10e1e8   Emif16FpgaOpenDevice
0c10e200   Emif16FpgaConfig
0c10e2c0   HostCmdResponse
0c10e3d4   DegreeSplit
0c10e4ac   VelocitySplit
0c10e560   ConfigFPGA
0c10e5d4   CommandToFPGA
0c10e600   Pa_create
0c10e940   ProcInit
0c10e9f0   tw_gen
0c10ec80   Qmss_init
0c10efc0   Srio_sockOpen
0c10f300   mmAlloc
0c10f640   CfgAddEntry
0c10f960   Srio_sockBind_DIO
0c10fc80   configSerdes
0c10fdf0   Init_SGMII
0c1102a0   Raco_Vec_C6678_Get_Licence_II
0c1105a0   inet_aton
0c1108f4   Osal_platformMalloc
0c110928   Osal_platformFree
0c110950   Osal_platformSpiCsEnter
0c11096c   Osal_platformSpiCsExit
0c110978   Osal_nimuMalloc
0c1109ac   Osal_nimuFree
0c1109d4   Osal_cppiCsEnter
0c1109f0   Osal_cppiCsExit
0c110a00   Osal_cppiMalloc
0c110a38   Osal_cppiFree
0c110a64   Osal_cppiBeginMemAccess
0c110a74   Osal_cppiEndMemAccess
0c110a88   Osal_qmssCsEnter
0c110aa4   Osal_qmssCsExit
0c110ab0   Osal_qmssMtCsEnter
0c110ab4   Osal_qmssMtCsExit
0c110ac8   Osal_qmssMalloc
0c110af8   Osal_qmssFree
0c110b24   Osal_qmssBeginMemAccess
0c110b34   Osal_qmssEndMemAccess
0c110b48   Osal_paBeginMemAccess
0c110b58   Osal_paEndMemAccess
0c110b6c   Osal_paMtCsEnter
0c110b80   Osal_paMtCsExit
0c110ba0   ti_sysbios_family_c64p_Hwi_dispatchC__I
0c110ea0   Pa_forwardResult
0c111180   UdpOutput
0c111460   ti_sysbios_knl_Task_Module_startup__E
0c111460   ti_sysbios_knl_Task_Module_startup__F
0c111740   BindNew
0c111a00   cos
0c111cc0   NodeAdd
0c111f60   RtFind
0c112200   SockClose
0c1124a0   TcpPrSetOption
0c112740   ti_sysbios_knl_Clock_workFunc__E
0c1129e0   TaskSleep
0c1129e0   ti_sysbios_knl_Task_sleep__E
0c112c80   DHCPOpen
0c112f00   ICMPGenPacket
0c113180   SockPcbResolve
0c113400   Srio_start
0c113900   sin
0c113b80   ti_sysbios_knl_Clock_Instance_init__F
0c113e00   TaskExit
0c113e00   ti_sysbios_knl_Task_exit__E
0c114080   xdc_runtime_Core_createObject__I
0c114300   xdc_runtime_Error_raiseX__E
0c114300   xdc_runtime_Error_raiseX__F
0c114580   RawEthSockSet
0c1147e0   SBWrite
0c114a40   SockPcbBind
0c114ca0   Srio_sockBind_TYPE11
0c114f00   xdc_runtime_Startup_startMods__I
0c115160   xdc_runtime_System_printfExtend__I
0c1153c0   Cppi_open
0c115600   Pa_resetControl
0c115840   PipeRecv
0c115a80   Raco_Vec_C6678_Get_Licence_II_ASM_Master
0c115cc0   RawInput
0c115f00   Srio_init
0c116140   Srio_sockBind_TYPE9
0c116380   __c6xabi_divull
0c116800   dhcpState
0c116a40   ti_ndk_config_Global_stackThread
0c116c80   ti_sysbios_family_c64p_Exception_internalHandler__I
0c116ec0   ti_sysbios_knl_Semaphore_post__E
0c117100   xdc_runtime_LoggerBuf_write8__E
0c117100   xdc_runtime_LoggerBuf_write8__F
0c117560   RawEthSockNew
0c1179a0   CSL_intcOpen
0c117bc0   _CSL_intcEvent0Dispatcher
0c117de0   _CSL_intcEvent1Dispatcher
0c118000   _CSL_intcEvent2Dispatcher
0c118220   _CSL_intcEvent3Dispatcher
0c118440   dhcpVerifyMessage
0c118660   ti_sysbios_knl_Swi_run__I
0c118880   ti_sysbios_knl_Task_schedule__I
0c118aa0   ti_sysbios_knl_Task_startup__E
0c118d34   testMDIOAccess
0c118d48   qmss_cppi_pa_init
0c118dc0   DSPInit
0c118ec0   NIMUReceivePacket
0c1192c0   Qmss_programAccumulator
0c1194c0   RTCReport
0c1196c0   Srio_rxCompletionIsr
0c1198c0   ti_sysbios_family_c64p_Hwi_dispatchAlways
0c119cc0   cppi_internal_heap_add
0c119ec0   setvbuf
0c11a0c0   ti_sysbios_io_DEV_Module_startup__E
0c11a0c0   ti_sysbios_io_DEV_Module_startup__F
0c11a4a0   TcpGenPacket
0c11a860   _CSL_intcDispatcher
0c11aa40   dhcpSocketOpen
0c11ac20   ti_sysbios_knl_Task_postInit__I
0c11ae00   ti_sysbios_timers_timer64_Timer_getFreq__E
0c11afe0   CfgExecute
0c11b1a0   Cppi_channelClose
0c11b360   Cppi_initCfg
0c11b520   IPGetRoute
0c11b6e0   LLIGenArpPacket
0c11bde0   TcpTimeoutRexmt
0c11bfa0   _LLITimeoutCheck
0c11c4e0   UartWriteData
0c11c520   UartSetBaudRate
0c11c548   UartReadData
0c11c554   UartReadBaudRate
0c11c588   UartIsDataReady
0c11c5a4   UartInit
0c11c6a0   ti_sysbios_knl_Task_checkStacks__E
0c11c860   ti_sysbios_timers_timer64_Timer_setPeriodMicroSecs__E
0c11ca20   mulcoresyn
0c11cbe0   CfgRemoveEntry
0c11cd80   HOSTrename
0c11d0c0   NC_NetStart
0c11d260   NodeTreeFree
0c11d400   Pa_downloadImage
0c11d5a0   SockCreatePacket
0c11d8e0   dhcpBuildOptions
0c11da80   ti_sysbios_gates_GateMutex_enter__E
0c11dc20   ti_sysbios_timers_timer64_Timer_start__E
0c11ddc0   xdc_runtime_LoggerBuf_write4__E
0c11ddc0   xdc_runtime_LoggerBuf_write4__F
0c11df60   IGMPMsg
0c11e0e0   NIMURegister
0c11e3e0   Srio_sockClose_DIO
0c11eb60   dhcpBuildRequest
0c11ece0   fdClose
0c11ee60   llEnter
0c11efe0   ti_sysbios_family_c64p_Exception_dispatch__E
0c11f160   ti_sysbios_heaps_HeapMem_Instance_init__F
0c11f2e0   ti_sysbios_knl_Swi_schedule__I
0c11f460   ti_sysbios_knl_Task_unblockI__E
0c11f5e0   xdc_runtime_Text_putSite__E
0c11f5e0   xdc_runtime_Text_putSite__F
0c11f760   CfgGetEntry
0c11f8c0   CfgGetNextEntry
0c11fa20   DbgPrintf
0c11fe40   PipeSend
0c11ffa0   RawOutput
0c120260   RtWalkNext
0c120520   SockPcbConnect
0c1207e0   TcpTimeoutKeep
0c120940   CreateSocket
0c120a24   CloseSocket
0c120a44   NetworkOpenHookFunc
0c120a70   NetworkCloseHookFunc
0c120aa0   CSL_chipReadReg
0c120be0   ICMPSendRtAdv
0c120d20   IGMPJoin
0c120e60   LLINew
0c120fa0   NodeFind
0c1210e0   NodeWalk
0c121220   PBM_alloc
0c121360   PBM_free
0c1215e0   SockAccept
0c121720   SockListen
0c121860   SockPcbCtlError
0c1219a0   Srio_getSockOpt
0c121ae0   Srio_sockSend_TYPE11
0c121c20   Srio_sockSend_TYPE9
0c121d60   _auto_init_elf
0c121ea0   CSL_intcInit
0c121fe0   _CSL_intcIvpSet
0c121ff0   CSL_intcInterruptEnable
0c122010   CSL_intcInterruptDisable
0c122030   CSL_intcInterruptClear
0c122040   CSL_intcInterruptSet
0c12204c   CSL_intcInterruptRestore
0c122064   CSL_intcQueryInterruptStatus
0c122078   CSL_intcGlobalEnable
0c122098   CSL_intcGlobalDisable
0c1220b8   CSL_intcGlobalRestore
0c1220d0   CSL_intcGlobalNmiEnable
0c1220e4   CSL_intcGlobalExcepEnable
0c1220f8   CSL_intcGlobalExtExcepEnable
0c12210c   CSL_intcGlobalExcepClear
0c122120   dhcpDecodeType
0c1223a0   mmCopy
0c1224e0   sendto
0c122620   ti_ndk_config_ip_init
0c122760   ti_sysbios_family_c64p_Hwi_Module_startup__E
0c122760   ti_sysbios_family_c64p_Hwi_Module_startup__F
0c1228a0   ti_sysbios_family_c66_Cache_Module_startup__E
0c1228a0   ti_sysbios_family_c66_Cache_Module_startup__F
0c1229e0   ti_sysbios_knl_Clock_Instance_finalize__F
0c122b20   ti_sysbios_knl_Semaphore_Instance_init__F
0c122c60   ti_sysbios_knl_Swi_post__E
0c122da0   ti_sysbios_knl_Task_blockI__E
0c122ee0   BindFree
0c123000   CfgFree
0c123120   DaemonFree
0c123240   FdWaitEvent
0c123360   IGMPLeaveHostGroup
0c123480   IPMsg
0c1236c0   NC_SystemOpen
0c1237e0   NIMUAddEthernetHeader
0c123900   NetworkRecv
0c123a20   Qmss_disableAccumulator
0c123b40   Raco_Vec_C6678_Get_Licence_I
0c123c60   RawEthRxPacket
0c123d80   RawEthTxPacket
0c123ea0   SBNew
0c124320   SockShutdown
0c124440   Srio_sockClose_TYPE11
0c124560   Srio_sockClose_TYPE9
0c124680   Srio_sockRecv
0c1247a0   TcpPrAttach
0c1248c0   _RtNodeInsert
0c1249e0   _closefile
0c124b00   _mmInit
0c124c20   accept
0c124d40   fdOpenSession
0c124e60   fseek
0c124f80   recv
0c1251c0   send
0c1252e0   setsockopt
0c125400   ti_sysbios_knl_Mailbox_Module_startup__E
0c125400   ti_sysbios_knl_Mailbox_Module_startup__F
0c125520   xdc_runtime_LoggerBuf_setFilterLevel__E
0c125520   xdc_runtime_LoggerBuf_setFilterLevel__F
0c125640   xdc_runtime_Text_putLab__E
0c125640   xdc_runtime_Text_putLab__F
0c125760   CfgNew
0c125860   CfgSetExecuteOrder
0c125960   ExecOpen
0c125a60   HOSTlseek
0c125c60   RTCMsg
0c125d60   RtRedirect
0c125f60   SockValidateRoute
0c126160   TcpPrInherit
0c126260   TcpXmitTimer
0c126360   _RtNodeRemove
0c126460   _wrt_ok
0c126660   mmFree
0c126860   socket
0c126960   ti_sysbios_family_c64p_EventCombiner_dispatch__E
0c126960   ti_sysbios_family_c64p_EventCombiner_dispatch__F
0c126a60   ti_sysbios_knl_Clock_startI__E
0c126b60   ti_sysbios_knl_Mailbox_pend__E
0c126c60   ti_sysbios_knl_Mailbox_post__E
0c126d60   ti_sysbios_knl_Swi_restoreHwi__E
0c126f60   xdc_runtime_Core_deleteObject__I
0c127060   xdc_runtime_LoggerBuf_getFilterLevel__E
0c127060   xdc_runtime_LoggerBuf_getFilterLevel__F
0c127160   xdc_runtime_Startup_exec__E
0c127160   xdc_runtime_Startup_exec__F
0c127260   xdc_runtime_Text_putMod__E
0c127260   xdc_runtime_Text_putMod__F
0c127360   xdc_runtime_Text_visitRope2__I
0c127460   CfgGetEntryCnt
0c127540   DHCPClose
0c127620   HOSTopen
0c127700   IGMPLeave
0c1279a0   NodeDeRef
0c127b60   NodeTreeNew
0c127c40   PBMQ_enq
0c127d20   Raco_Vec_C6678_Get_Licence_II_ASM_Slave
0c127e00   RawEthSockNotify
0c127ee0   RawEthSockPcbAttach
0c127fc0   RawEthSockSend
0c1280a0   RtDeRef
0c128180   RtRemove
0c128260   SBSetMax
0c128420   SockDisconnect
0c128500   SockSpawnAbort
0c1286c0   TcpPrDetach
0c1287a0   TcpPrDisconnect
0c128880   TcpValidateMetrics
0c128a40   UdpChecksum
0c128b20   VLANDeinit
0c128c00   VLANReceivePacket
0c128dc0   _LLIExpListInsert
0c128ea0   _RtExpListInsert
0c128f80   bind
0c129090   C6678_TimeCounter_Enable
0c1290a4   C6678_TimeCounter_GetHighVal
0c1290c8   C6678_TimeCounter_GetLowVal
0c1290ec   C6678_TimeCounter_Delaycycles
0c129140   close
0c129220   __TI_zero_init
0c129300   fdint_lockfd
0c1293e0   fdint_unlockfd
0c1294c0   llExit
0c1295a0   memset
0c129680   mmBulkAlloc
0c129840   ti_sysbios_knl_Clock_start__E
0c129920   ti_sysbios_hal_Timer_TimerProxy_startup__E
0c129920   ti_sysbios_hal_Timer_startup__E
0c129920   ti_sysbios_timers_timer64_Timer_startup__E
0c129a00   xdc_runtime_Error_print__E
0c129a00   xdc_runtime_Error_print__F
0c129ae0   xdc_runtime_Memory_alloc__E
0c129ae0   xdc_runtime_Memory_alloc__F
0c129bc0   HOSTread
0c129c80   HOSTunlink
0c129d40   HOSTwrite
0c129e00   LLIGetValidTime
0c129ec0   LLIMsg
0c129f80   NIMUFindByName
0c12a040   NS_BootTask
0c12a1c0   NtIfIdx2Ip
0c12a280   PBM_copy
0c12a340   Qmss_setEoiVector
0c12a400   RtWalkBegin
0c12a4c0   SBFlush
0c12a580   SockIntAbort
0c12a640   SockPcbRtChange
0c12a700   Srio_Bind_11
0c12a7c0   Srio_Bind_9
0c12a940   TaskGetEnv
0c12aa00   TcpChecksum
0c12aac0   TcpClose
0c12ab80   TcpTimeoutSackRexmt
0c12ad00   __cxa_finalize
0c12adc0   __c6xabi_divu
0c12adc0   __divu
0c12ae80   __c6xabi_remi
0c12ae80   __remi
0c12af40   _doflush
0c12b000   cppi_list_remove_node
0c12b0c0   CSL_intcPlugEventHandler
0c12b180   dhcpOptionsClear
0c12b240   exit
0c12b300   mmZeroInit
0c12b3c0   ti_sysbios_BIOS_errorRaiseHook__I
0c12b480   ti_sysbios_heaps_HeapMem_getStats__E
0c12b540   ti_sysbios_knl_Clock_logTick__E
0c12b600   ti_sysbios_knl_Task_Object__create__S
0c12b6c0   ti_sysbios_timers_timer64_Timer_stop__E
0c12b780   xdc_runtime_LoggerBuf_Instance_init__F
0c12b840   xdc_runtime_LoggerBuf_Object__create__S
0c12b900   xdc_runtime_System_formatNum__I
0c12b9c0   CfgEntryDeRef
0c12ba60   CfgEntryGetData
0c12bb00   CfgGetImmediate
0c12bba0   Cppi_channelEnable
0c12bc40   FdSignalEvent
0c12bce0   HOSTclose
0c12bd80   IPReasmFree
0c12be20   IPReasmTimeout
0c12bec0   LLIValidateRoute
0c12bf60   NIMUShutdown
0c12c000   NIMUUnregister
0c12c0a0   NtAddNetwork
0c12c140   PBM_open
0c12c1e0   Qmss_queueClose
0c12c280   Qmss_startCfg
0c12c320   RouteMsg
0c12c460   SBFree
0c12c500   SemCreate
0c12c5a0   SockBind
0c12c640   SockCleanPcb
0c12c6e0   SockPcbResolveChain
0c12c780   TaskCreate
0c12c820   TcpDrop
0c12c8c0   TcpPrCtlError
0c12c960   TcpPrSend
0c12ca00   TcpPrSendOOB
0c12caa0   TimerNew
0c12cbe0   _LLITimeoutFlush
0c12cc80   __c6xabi_nround
0c12cd20   __c6xabi_remu
0c12cd20   __remu
0c12cdc0   _c_int00
0c12ce60   _cleanup
0c12cf00   cppi_internal_heap_malloc
0c12cfa0   cppi_list_cat
0c12d040   CSL_intcClose
0c12d0e0   dhcpBuildDecline
0c12d220   fdCloseSession
0c12d360   listen
0c12d400   llTimerTick
0c12d4a0   lseek
0c12d540   resetfunc
0c12d540   xdc_runtime_Startup_reset__I
0c12d544   myfirstfunc
0c12d550   mylastfunc
0c12d554   main
0c12d5e0   memcpy
0c12d680   mmBulkFree
0c12d7c0   modf
0c12d9a0   ti_sysbios_heaps_HeapMem_init__I
0c12da40   write
0c12dae0   xdc_runtime_Assert_raise__I
0c12db80   xdc_runtime_LoggerBuf_Module_startup__E
0c12db80   xdc_runtime_LoggerBuf_Module_startup__F
0c12dc20   xdc_runtime_SysMin_abort__E
0c12dc20   xdc_runtime_SysMin_abort__F
0c12dc20   xdc_runtime_System_SupportProxy_abort__E
0c12dcc0   xdc_runtime_SysMin_flush__E
0c12dcc0   xdc_runtime_SysMin_flush__F
0c12dcc0   xdc_runtime_System_SupportProxy_flush__E
0c12dcc0   xdc_runtime_System_flush__E
0c12dcc0   xdc_runtime_System_flush__F
0c12dd60   xdc_runtime_SysMin_putch__E
0c12dd60   xdc_runtime_SysMin_putch__F
0c12dd60   xdc_runtime_System_SupportProxy_putch__E
0c12de00   Cppi_setCpdmaLoopback
0c12de80   SrioDoorBell_Isr_handler
0c12df00   ICMPChecksum
0c12df80   NC_SystemClose
0c12e000   NIMUInit
0c12e080   PBMQ_deq
0c12e100   Pa_getBufferReq
0c12e180   PipeClose
0c12e200   Qmss_getMemRegQueueHandle
0c12e280   Qmss_queueOpen
0c12e300   RawEthSockClose
0c12e380   RawEthSockPcbDetach
0c12e400   RtSetFailure
0c12e480   RtSetTimeout
0c12e500   SockGetName
0c12e580   SockPcbCleanup
0c12e600   SockPcbDetach
0c12e700   Srio_sockClose
0c12e780   TaskSetEnv
0c12e800   TcpPrListen
0c12e880   TimerHSTick
0c12ea00   _LLIExpListRemove
0c12eb00   _RtExpListRemove
0c12eb80   __c6xabi_fixdu
0c12ec00   __c6xabi_llshl
0c12ec80   ti_sysbios_family_c62_TaskSupport_swap__E
0c12ec80   ti_sysbios_knl_Task_SupportProxy_swap__E
0c12ed00   cppi_internal_heap_cache_begin
0c12ed80   cppi_list_remove
0c12ee00   dhcpSocketClose
0c12ee80   fdint_waitevent
0c12ef00   llTimerGetTime
0c12ef80   malloc
0c12f080   readmsg
0c12f180   evmI2CInit
0c12f200   ti_ndk_config_tcp_init
0c12f280   ti_sysbios_family_c62_TaskSupport_start__E
0c12f280   ti_sysbios_knl_Task_SupportProxy_start__E
0c12f300   ti_sysbios_family_c64p_Exception_Module_startup__E
0c12f300   ti_sysbios_family_c64p_Exception_Module_startup__F
0c12f380   ti_sysbios_family_c64p_Hwi_eventMap__E
0c12f400   ti_sysbios_family_c66_Cache_wbInvAll__E
0c12f400   ti_sysbios_hal_Cache_CacheProxy_wbInvAll__E
0c12f400   ti_sysbios_hal_Cache_wbInvAll__E
0c12f480   ti_sysbios_gates_GateHwi_Object__create__S
0c12f500   ti_sysbios_gates_GateMutex_Object__create__S
0c12f580   ti_sysbios_heaps_HeapMem_Object__create__S
0c12f600   ti_sysbios_knl_Clock_Module_startup__E
0c12f600   ti_sysbios_knl_Clock_Module_startup__F
0c12f680   ti_sysbios_knl_Clock_Object__create__S
0c12f700   ti_sysbios_knl_Clock_doTick__I
0c12f780   ti_sysbios_knl_Clock_getTicks__E
0c12f800   ti_sysbios_knl_Idle_loop__E
0c12f880   ti_sysbios_knl_Queue_Object__create__S
0c12f900   ti_sysbios_knl_Semaphore_Object__create__S
0c12f980   ti_sysbios_knl_Semaphore_pendTimeout__I
0c12fa00   ti_sysbios_knl_Swi_startup__E
0c12fa80   ti_sysbios_knl_Task_deleteTerminatedTasksFunc__I
0c12fb00   ti_sysbios_knl_Task_restore__E
0c12fb80   ti_sysbios_timers_timer64_Timer_getCount__E
0c12fb80   ti_sysbios_timers_timer64_Timer_getExpiredCounts__E
0c12fc00   ti_sysbios_timers_timer64_Timer_getPeriod__E
0c12fc80   remove
0c12fc80   unlink
0c12fd00   xdc_runtime_Core_assignLabel__I
0c12fd80   xdc_runtime_Core_assignParams__I
0c12fe00   xdc_runtime_LoggerBuf_filterOutEvent__I
0c12fe80   xdc_runtime_System_atexit__E
0c12fe80   xdc_runtime_System_atexit__F
0c12ff00   xdc_runtime_System_rtsExit__I
0c12ff80   xdc_runtime_Text_printVisFxn__I
0c130000   xdc_runtime_Text_xprintf__I
0c130080   BindFindByHost
0c1300e0   BindFindByIF
0c130140   BindFindByNet
0c1301a0   BindGetIFByDBCast
0c130200   BindIF2IPHost
0c130260   CSL_CPINTC_open
0c1302c0   CfgEntryInfo
0c130320   CfgSetService
0c1303e0   IGMPTestGroup
0c130440   IPChecksum
0c1304a0   LLIFree
0c130500   NIMUAddHeader
0c130560   NIMUCreatePacket
0c1305c0   NIMUFindByIndex
0c130620   NIMUPacketService
0c130680   NIMUPacketServiceCheck
0c1306e0   NIMUSendPacket
0c130740   NS_PreBoot
0c1307a0   NetworkSend
0c130800   RTCAddHook
0c130860   RTCRemoveHook
0c1308c0   Raco_Vec_C6678_Get_SN
0c130920   RawEthSockPcbCleanup
0c130980   RawEthSockPcbFind
0c1309e0   RtWalkEnd
0c130aa0   SockPrCtlError
0c130b00   SockPrDetach
0c130b60   Srio_allocTransmitBuffer
0c130bc0   Srio_freeRxDrvBuffer
0c130c20   TcpPrConnect
0c130c80   TcpSetPersist
0c130ce0   TcpTimeoutPersist
0c130e00   VLANInit
0c130ec0   __c6xabi_frcmpyd_div
0c130f20   __c6xabi_llshru
0c130f80   _subcull
0c130fe0   cppi_list_add
0c131040   cppi_list_cache_invalidate
0c1310a0   dhcpBuildDiscover
0c131100   dhcpPacketReceive
0c131160   dhcpPacketSend
0c1311c0   fdint_getfdt
0c131220   list_remove_node
0c1313a0   printf
0c131400   ti_sysbios_BIOS_exitFunc__I
0c131460   ti_sysbios_BIOS_registerRTSLock__I
0c1314c0   ti_sysbios_family_c64p_EventCombiner_Module_startup__E
0c1314c0   ti_sysbios_family_c64p_EventCombiner_Module_startup__F
0c131520   ti_sysbios_family_c64p_EventCombiner_dispatchPlug__E
0c131520   ti_sysbios_family_c64p_EventCombiner_dispatchPlug__F
0c131580   ti_sysbios_family_c64p_EventCombiner_unused__E
0c131580   ti_sysbios_family_c64p_EventCombiner_unused__F
0c1315e0   ti_sysbios_family_c64p_Hwi_restoreInterrupt__E
0c1315e0   ti_sysbios_hal_Hwi_HwiProxy_restoreInterrupt__E
0c1315e0   ti_sysbios_hal_Hwi_restoreInterrupt__E
0c131640   ti_sysbios_gates_GateMutex_Instance_init__F
0c1316a0   ti_sysbios_hal_Hwi_initStack
0c131700   ti_sysbios_knl_Swi_Module_startup__E
0c131700   ti_sysbios_knl_Swi_Module_startup__F
0c131760   ti_sysbios_knl_Task_allBlockedFunction__I
0c1317c0   ti_sysbios_knl_Task_enter__I
0c131820   writemsg
0c131878   C$$IO$$
0c131880   xdc_runtime_Memory_calloc__E
0c131880   xdc_runtime_Memory_calloc__F
0c1318e0   xdc_runtime_SysMin_Module_startup__E
0c1318e0   xdc_runtime_SysMin_Module_startup__F
0c131940   xdc_runtime_SysMin_exit__E
0c131940   xdc_runtime_SysMin_exit__F
0c131940   xdc_runtime_System_SupportProxy_exit__E
0c1319a0   xdc_runtime_SysMin_output__I
0c131a00   xdc_runtime_System_aprintf_va__E
0c131a00   xdc_runtime_System_aprintf_va__F
0c131a00   xdc_runtime_System_avprintf__E
0c131a00   xdc_runtime_System_avprintf__F
0c131a60   xdc_runtime_System_printf_va__E
0c131a60   xdc_runtime_System_printf_va__F
0c131a60   xdc_runtime_System_vprintf__E
0c131a60   xdc_runtime_System_vprintf__F
0c131ac0   xdc_runtime_Text_cordText__E
0c131ac0   xdc_runtime_Text_cordText__F
0c131b20   BindGetIP
0c131b60   ExecClose
0c131ba0   ExecTimer
0c131be0   NC_BootComplete
0c131c20   NDK_hookCreate
0c131c60   NtRemoveNetwork
0c131ca0   Qmss_ackInterrupt
0c131ce0   Qmss_getMemRegDescSize
0c131d20   RawEthSockPcbInit
0c131da0   SockPcbAttach
0c131de0   SockSetOOBMark
0c131e20   TaskDestroy
0c131e60   TcpTimeoutRemove
0c131ea0   TcpTimeoutWait2
0c131ee0   __c6xabi_call_stub
0c131ee0   __call_stub
0c131f20   __c6xabi_strasgi_64plus
0c131f20   __strasgi_64plus
0c131f60   _args_main
0c131fa0   _llTimerInit
0c131fe0   ti_sysbios_family_c62_TaskSupport_buildTaskStack
0c132020   ti_sysbios_family_xxx_Hwi_switchToIsrStack
0c132060   fdint_freefdt
0c1320a0   free
0c1320e0   inet_addr
0c132120   list_add
0c132160   list_remove
0c1321e0   puts
0c132260   sprintf
0c1322a0   ti_sysbios_BIOS_startFunc__I
0c1322e0   ti_sysbios_BIOS_start__E
0c132320   ti_sysbios_family_c64p_EventCombiner_disableEvent__E
0c132320   ti_sysbios_family_c64p_EventCombiner_disableEvent__F
0c132360   ti_sysbios_family_c64p_EventCombiner_enableEvent__E
0c132360   ti_sysbios_family_c64p_EventCombiner_enableEvent__F
0c1323a0   ti_sysbios_family_c64p_Hwi_Module__startupDone__F
0c1323a0   ti_sysbios_family_c64p_Hwi_Module__startupDone__S
0c1323e0   ti_sysbios_family_c64p_Hwi_disableInterrupt__E
0c1323e0   ti_sysbios_hal_Hwi_HwiProxy_disableInterrupt__E
0c1323e0   ti_sysbios_hal_Hwi_disableInterrupt__E
0c132420   ti_sysbios_family_c64p_Hwi_enableInterrupt__E
0c132420   ti_sysbios_hal_Hwi_HwiProxy_enableInterrupt__E
0c132420   ti_sysbios_hal_Hwi_enableInterrupt__E
0c132460   ti_sysbios_gates_GateHwi_Handle__label__S
0c1324a0   ti_sysbios_gates_GateHwi_Object__delete__S
0c1324e0   ti_sysbios_gates_GateMutex_Handle__label__S
0c132520   ti_sysbios_gates_GateMutex_Instance_finalize__F
0c132560   ti_sysbios_gates_GateMutex_Object__delete__S
0c1325a0   ti_sysbios_gates_GateMutex_leave__E
0c1325e0   ti_sysbios_hal_Timer_Module__startupDone__F
0c1325e0   ti_sysbios_hal_Timer_Module__startupDone__S
0c132620   ti_sysbios_heaps_HeapMem_Handle__label__S
0c132660   ti_sysbios_heaps_HeapMem_Object__delete__S
0c1326a0   ti_sysbios_heaps_HeapMem_Object__get__S
0c1326e0   ti_sysbios_knl_Clock_Object__destruct__S
0c132720   ti_sysbios_knl_Mailbox_Object__get__S
0c132760   ti_sysbios_knl_Queue_Object__destruct__S
0c1327a0   ti_sysbios_knl_Semaphore_Instance_finalize__F
0c1327e0   ti_sysbios_knl_Semaphore_Object__delete__S
0c132820   ti_sysbios_knl_Semaphore_Object__destruct__S
0c132860   ti_sysbios_knl_Swi_Object__get__S
0c1328a0   ti_sysbios_knl_Task_Object__delete__S
0c1328e0   ti_sysbios_knl_Task_Object__get__S
0c132920   ti_sysbios_knl_Task_sleepTimeout__I
0c132960   ti_sysbios_timers_timer64_Timer_Module__startupDone__F
0c132960   ti_sysbios_timers_timer64_Timer_Module__startupDone__S
0c1329a0   xdc_runtime_Error_check__E
0c1329a0   xdc_runtime_Error_check__F
0c1329e0   xdc_runtime_Error_init__E
0c1329e0   xdc_runtime_Error_init__F
0c132a20   xdc_runtime_Gate_leaveSystem__E
0c132a20   xdc_runtime_Gate_leaveSystem__F
0c132a60   xdc_runtime_LoggerBuf_Handle__label__S
0c132aa0   xdc_runtime_LoggerBuf_Instance_finalize__F
0c132ae0   xdc_runtime_LoggerBuf_Object__delete__S
0c132b20   xdc_runtime_LoggerBuf_Object__get__S
0c132b60   xdc_runtime_LoggerBuf_write0__E
0c132b60   xdc_runtime_LoggerBuf_write0__F
0c132ba0   xdc_runtime_LoggerBuf_write1__E
0c132ba0   xdc_runtime_LoggerBuf_write1__F
0c132be0   xdc_runtime_LoggerBuf_write2__E
0c132be0   xdc_runtime_LoggerBuf_write2__F
0c132c20   xdc_runtime_Memory_free__E
0c132c20   xdc_runtime_Memory_free__F
0c132c60   xdc_runtime_Registry_findById__E
0c132c60   xdc_runtime_Registry_findById__F
0c132ca0   xdc_runtime_System_abort__E
0c132ca0   xdc_runtime_System_abort__F
0c132ce0   xdc_runtime_System_aprintf__E
0c132d20   xdc_runtime_System_printf__E
0c132d60   xdc_runtime_Text_ropeText__E
0c132d60   xdc_runtime_Text_ropeText__F
0c132da0   BindGetFirst
0c132dc0   BindGetIF
0c132de0   BindGetNext
0c132e00   BindIFNet2IPHost
0c132e20   BindIPHost2IF
0c132e40   CSL_SRIO_Open
0c132e60   CfgSetDefault
0c132e80   Cppi_init
0c132ea0   ExecHRef
0c132ec0   ExecLowResource
0c132ee0   IPRtChange
0c132f00   LED_TOGGLE
0c132f20   NC_IPUpdate
0c132f40   NC_NetStop
0c132f60   NDK_hookInit
0c132f80   NIMUGetRsvdSizeInfo
0c132fa0   NIMUSetRsvdSizeInfo
0c132fc0   NatMsg
0c132fe0   NodeGetRt
0c133000   NodeSetRt
0c133020   NotifyLowResource
0c133040   OEMCacheClean
0c133060   OEMSysCritOff
0c133080   OEMSysCritOn
0c1330a0   PBM_close
0c1330c0   Qmss_getQueueNumber
0c1330e0   Qmss_start
0c133100   RawEthSockPrAttach
0c133120   RawEthSockPrDetach
0c133140   SemDelete
0c133160   SemPend
0c133180   SemPost
0c1331a0   SemReset
0c1331c0   SockPrAttach
0c1331e0   SockSetOOBData
0c133200   TaskBlock
0c133220   TaskSelf
0c133240   TaskSetPri
0c133260   TcpPrRecv
0c133280   TcpTimeoutAdd
0c1332a0   TimerFree
0c1332c0   _TaskInit
0c1332e0   _TaskShutdown
0c133300   __c6xabi_trunc
0c133320   __cxa_atexit
0c133340   __cxa_ia64_exit
0c133360   __c6xabi_pop_rts
0c133360   __pop_rts
0c133380   __c6xabi_push_rts
0c133380   __push_rts
0c1333a0   __xdc__init
0c1333c0   _llSerialInit
0c1333e0   _llSerialServiceCheck
0c133400   _llSerialShutdown
0c133420   _llTimerShutdown
0c133440   _llUserLedInit
0c133460   _llUserLedShutdown
0c133480   _nop
0c1334a0   _register_lock
0c1334c0   _register_unlock
0c1334e0   ti_sysbios_family_c62_TaskSupport_glue
0c133500   ti_sysbios_family_xxx_Hwi_switchToTaskStack
0c133520   C$$EXIT
0c133520   abort
0c133540   atexit
0c133560   clear_gie
0c133580   restore_irp
0c1335a0   restore_itsr
0c1335c0   restore_nrp
0c1335e0   restore_pgie
0c133600   save_irp
0c133620   save_itsr
0c133640   save_nrp
0c133660   save_pgie
0c133680   set_gie
0c1336a0   cppi_internal_heap_free
0c1336c0   cppi_list_get_head
0c1336e0   cppi_list_get_next
0c133700   CSL_intcHookIsr
0c133720   _CSL_intcNmiDummy
0c133740   CSL_tscEnable
0c133748   CSL_tscRead
0c133760   __TI_decompress_none
0c133780   __TI_decompress_rle24
0c1337a0   fdint_signaltimeout
0c1337c0   list_get_head
0c1337e0   list_get_next
0c133800   llSerialService
0c133820   llTimerGetStartTime
0c1338e0   ti_sysbios_BIOS_RtsGateProxy_enter__E
0c133900   ti_sysbios_BIOS_RtsGateProxy_leave__E
0c133920   ti_sysbios_BIOS_setThreadType__E
0c133940   ti_sysbios_family_c62_TaskSupport_Module__startupDone__S
0c133960   ti_sysbios_family_c62_TaskSupport_checkStack__E
0c133960   ti_sysbios_knl_Task_SupportProxy_checkStack__E
0c133980   ti_sysbios_family_c62_TaskSupport_getStackAlignment__E
0c133980   ti_sysbios_knl_Task_SupportProxy_getStackAlignment__E
0c1339a0   ti_sysbios_family_c64p_Hwi_clearInterrupt__E
0c1339a0   ti_sysbios_hal_Hwi_HwiProxy_clearInterrupt__E
0c1339a0   ti_sysbios_hal_Hwi_clearInterrupt__E
0c1339c0   ti_sysbios_family_c64p_Hwi_startup__E
0c1339c0   ti_sysbios_hal_Hwi_HwiProxy_startup__E
0c1339c0   ti_sysbios_hal_Hwi_startup__E
0c1339e0   ti_sysbios_family_c64p_Hwi_switchFromBootStack__E
0c1339e0   ti_sysbios_hal_Hwi_HwiProxy_switchFromBootStack__E
0c1339e0   ti_sysbios_hal_Hwi_switchFromBootStack__E
0c133a00   ti_sysbios_family_c64p_TimestampProvider_Module_startup__E
0c133a00   ti_sysbios_family_c64p_TimestampProvider_Module_startup__F
0c133a20   ti_sysbios_family_c64p_TimestampProvider_get64__E
0c133a20   xdc_runtime_LoggerBuf_TimestampProxy_get64__E
0c133a40   ti_sysbios_family_c64p_tci6488_TimerSupport_enable__E
0c133a40   ti_sysbios_timers_timer64_Timer_TimerSupportProxy_enable__E
0c133a60   ti_sysbios_family_c66_Cache_inv__E
0c133a60   ti_sysbios_hal_Cache_CacheProxy_inv__E
0c133a60   ti_sysbios_hal_Cache_inv__E
0c133a80   ti_sysbios_family_c66_Cache_wbInv__E
0c133a80   ti_sysbios_hal_Cache_CacheProxy_wbInv__E
0c133a80   ti_sysbios_hal_Cache_wbInv__E
0c133aa0   ti_sysbios_family_c66_Cache_wb__E
0c133aa0   ti_sysbios_hal_Cache_CacheProxy_wb__E
0c133aa0   ti_sysbios_hal_Cache_wb__E
0c133ac0   ti_sysbios_gates_GateHwi_Instance_init__F
0c133ae0   ti_sysbios_gates_GateHwi_enter__E
0c133b00   ti_sysbios_gates_GateHwi_leave__E
0c133b20   ti_sysbios_gates_GateHwi_query__E
0c133b20   ti_sysbios_gates_GateHwi_query__F
0c133b20   xdc_runtime_LoggerBuf_Module_GateProxy_query__E
0c133b20   xdc_runtime_Main_Module_GateProxy_query__E
0c133b20   xdc_runtime_System_Module_GateProxy_query__E
0c133b40   ti_sysbios_BIOS_RtsGateProxy_query__E
0c133b40   ti_sysbios_gates_GateMutex_query__E
0c133b40   ti_sysbios_gates_GateMutex_query__F
0c133b40   ti_sysbios_heaps_HeapMem_Module_GateProxy_query__E
0c133b60   ti_sysbios_hal_Hwi_HwiProxy_Module__startupDone__S
0c133b80   ti_sysbios_hal_Hwi_Module_startup__E
0c133b80   ti_sysbios_hal_Hwi_Module_startup__F
0c133ba0   ti_sysbios_hal_Timer_Module_startup__E
0c133ba0   ti_sysbios_hal_Timer_Module_startup__F
0c133bc0   ti_sysbios_hal_Timer_TimerProxy_Module__startupDone__S
0c133be0   ti_sysbios_hal_Timer_TimerProxy_getExpiredCounts__E
0c133c00   ti_sysbios_hal_Timer_TimerProxy_getPeriod__E
0c133c20   ti_sysbios_hal_Timer_TimerProxy_setNextTick__E
0c133c40   ti_sysbios_heaps_HeapMem_Module_GateProxy_enter__E
0c133c60   ti_sysbios_heaps_HeapMem_Module_GateProxy_leave__E
0c133c80   ti_sysbios_heaps_HeapMem_isBlocking__E
0c133ca0   ti_sysbios_io_DEV_Object__get__S
0c133cc0   ti_sysbios_knl_Clock_Params__init__S
0c133ce0   ti_sysbios_knl_Queue_Instance_init__F
0c133d00   ti_sysbios_knl_Queue_Object__get__S
0c133d20   ti_sysbios_knl_Queue_empty__E
0c133d40   ti_sysbios_knl_Semaphore_reset__E
0c133d60   ti_sysbios_knl_Swi_disable__E
0c133d80   ti_sysbios_knl_Task_Object__first__S
0c133da0   ti_sysbios_knl_Task_Object__next__S
0c133dc0   ti_sysbios_knl_Task_Params__init__S
0c133de0   ti_sysbios_knl_Task_SupportProxy_Module__startupDone__S
0c133e00   ti_sysbios_knl_Task_disable__E
0c133e20   ti_sysbios_knl_Task_getHookContext__E
0c133e40   ti_sysbios_knl_Task_self__E
0c133e60   ti_sysbios_knl_Task_setHookContext__E
0c133e80   ti_sysbios_timers_timer64_Timer_setNextTick__E
0c133ea0   vsprintf
0c133ec0   xdc_runtime_Error_getMsg__E
0c133ec0   xdc_runtime_Error_getMsg__F
0c133ee0   xdc_runtime_Gate_enterSystem__E
0c133ee0   xdc_runtime_Gate_enterSystem__F
0c133f40   xdc_runtime_LoggerBuf_Module_GateProxy_enter__E
0c133f60   xdc_runtime_LoggerBuf_Module_GateProxy_leave__E
0c133f80   xdc_runtime_LoggerBuf_disable__E
0c133f80   xdc_runtime_LoggerBuf_disable__F
0c133fa0   xdc_runtime_LoggerBuf_enable__E
0c133fa0   xdc_runtime_LoggerBuf_enable__F
0c133fc0   xdc_runtime_Memory_HeapProxy_alloc__E
0c133fe0   xdc_runtime_Memory_HeapProxy_free__E
0c134000   xdc_runtime_Memory_getMaxDefaultTypeAlign__E
0c134000   xdc_runtime_Memory_getMaxDefaultTypeAlign__F
0c134020   xdc_runtime_Startup_exec__I
0c134040   xdc_runtime_SysMin_ready__E
0c134040   xdc_runtime_SysMin_ready__F
0c134040   xdc_runtime_System_SupportProxy_ready__E
0c134060   xdc_runtime_System_Module_GateProxy_enter__E
0c134080   xdc_runtime_System_Module_GateProxy_leave__E
0c1340a0   xdc_runtime_System_Module_startup__E
0c1340a0   xdc_runtime_System_Module_startup__F
0c1340c0   xdc_runtime_System_exit__E
0c1340c0   xdc_runtime_System_exit__F
0c1340e0   xdc_runtime_System_lastFxn__I
0c134100   xdc_runtime_System_sprintf_va__E
0c134100   xdc_runtime_System_sprintf_va__F
0c134100   xdc_runtime_System_vsprintf__E
0c134100   xdc_runtime_System_vsprintf__F
0c134120   xdc_runtime_Text_visitRope__I
0c134140   ti_sysbios_heaps_HeapMem_Instance_State_1_buf__A
0c174140   ti_sysbios_knl_Mailbox_Instance_State_0_allocBuf__A
0c1741e0   ti_sysbios_knl_Mailbox_Instance_State_1_allocBuf__A
0c174280   ti_sysbios_knl_Mailbox_Instance_State_2_allocBuf__A
0c174320   ti_sysbios_knl_Mailbox_Instance_State_3_allocBuf__A
0c174398   ti_sysbios_knl_Task_Instance_State_0_hookEnv__A
0c1743a0   ti_sysbios_knl_Task_Instance_State_1_hookEnv__A
0c1743a8   ti_sysbios_knl_Task_Instance_State_2_hookEnv__A
0c1743b0   ti_sysbios_knl_Task_Instance_State_3_hookEnv__A
0c1743b8   ti_sysbios_knl_Task_Instance_State_4_hookEnv__A
0c1743c0   ti_sysbios_knl_Task_Instance_State_5_hookEnv__A
0c1743c8   xdc_runtime_LoggerBuf_Instance_State_0_entryArr__A
0c1745c8   xdc_runtime_SysMin_Module_State_0_outbuf__A
0c1747c8   ti_ndk_config_Global_pit
0c174988   ti_ndk_config_Global_pitBuffer
0c180988   NetRecvBuf
0c180fc8   _tmpnams
0c181108   qmssLObj
0c181418   tcps
0c1814d0   tpseudo
0c1814dc   raweth_pcb
0c181580   _ICMPIn
0c1815d0   _ICMPOut
0c181620   BlockMax
0c181640   BlockCount
0c181660   PageMax
0c181680   PageCount
0c18169c   ips
0c181704   nimu_mcb
0c181768   gI2cBlock
0c1817ac   udps
0c1817d0   upseudo
0c1817e0   nimuGlobalConfigParams
0c1817f0   coreKey
0c181810   vlan_mcb
0c181838   gCppiCfg
0c181858   ti_ndk_config_Global_Id2Size
0c181874   PBMQ_free
0c181894   stkEvent
0c1818a4   raws
0c1818b4   raweths
0c1818d0   ti_sysbios_knl_Task_hooks__A
0c181900   ti_ndk_config_Global_pBufMem
0c1c9900   ti_ndk_config_Global_pHdrMem
0c1cd3c8   ti_sysbios_knl_Task_Object__PARAMS__C
0c1cd400   Radar_queueFree
0c1cf400   isQMSSInitialized
0c1cf480   Radar_qmssGObj
0c1cf7f8   qmssInitConfig
0c1cf880   chObjPtrtxcount
0c1cf900   mychObjtx
0c1d01c0   chObjPtrrxcount
0c1d0200   mychObjrx
0c1d0ac0   flowObjPtrrxcount
0c1d0b00   myflowObj
0c1d1280   scppiGblCfgParams
0c1d1300   Radar_cppiObject
0c1d1500   isSRIOInitialized
0c1d1504   srioDrvInstPtrcount
0c1d1508   srioSocketPtrcount
0c1d150c   sockDataPtrcount
0c1d1510   gDataBufferMemMgrMaxSize
0c1d1514   malloc_counter
0c1d1518   free_counter
0c1d151c   MemoryPtrcount
0c1d1520   myMemory
0c1d3320   IsQmssInit
0c1d3400   mysrioDrvInst
0c1d3800   mysrioSocket
0c1d3a00   mysockData
0c1d8000   gSRIODriverMCB
0c1d8100   gDataBufferMemMgr
0c1d8200   srioSocket
0c1d8300   hDrvManagedSrioDrv
0c1d8310   Radar_gHiPriAccumList
0c1d8400   srioSocket1
0c1d8500   srioSocket_type11
0c1d8580   hnd
0c1d8800   _CSL_intcVectorTable
0c1d8a00   c1
0c1da7c8   m
0c1dc078   xdc_runtime_Text_charTab__A
0c1dd468   c2
0c1dedc8   Radar_acc48_le
0c1df3f8   acc48_le
0c1dfe58   ti_sysbios_family_c66_Cache_marvalues__C
0c1e0740   xdc_runtime_Text_nodeTab__A
0c1e0d28   Radar_cppiLldVersionStr
0c1e0da8   Radar_qmssLldVersionStr
0c1e0f50   pap_pdsp_const_reg_map
0c1e10c0   Code2Err
0c1e11f4   ti_sysbios_BIOS_Module__diagsEnabled__C
0c1e11f8   xdc_runtime_Startup_sfxnTab__A
0c1e1238   xdc_runtime_LoggerBuf_Module__FXNS__C
0c1e1390   ti_sysbios_heaps_HeapMem_Module__FXNS__C
0c1e13b8   xdc_runtime_LoggerBuf_Object__PARAMS__C
0c1e13e0   ti_sysbios_gates_GateHwi_Module__FXNS__C
0c1e1404   ti_sysbios_gates_GateMutex_Module__FXNS__C
0c1e1428   ti_sysbios_knl_Clock_Object__PARAMS__C
0c1e144c   ti_sysbios_knl_Semaphore_Object__PARAMS__C
0c1e1490   ti_sysbios_gates_GateHwi_Object__DESC__C
0c1e14b0   ti_sysbios_gates_GateMutex_Object__DESC__C
0c1e14d0   ti_sysbios_heaps_HeapMem_Object__DESC__C
0c1e14f0   ti_sysbios_heaps_HeapMem_Object__PARAMS__C
0c1e1510   ti_sysbios_knl_Clock_Object__DESC__C
0c1e1530   ti_sysbios_knl_Queue_Object__DESC__C
0c1e1550   ti_sysbios_knl_Semaphore_Object__DESC__C
0c1e1570   ti_sysbios_knl_Task_Object__DESC__C
0c1e1590   xdc_runtime_LoggerBuf_Object__DESC__C
0c1e15b0   xdc_runtime_Startup_sfxnRts__A
0c1e160c   ti_sysbios_BIOS_Module__diagsIncluded__C
0c1e1688   ti_sysbios_gates_GateHwi_Object__PARAMS__C
0c1e16a0   ti_sysbios_gates_GateMutex_Object__PARAMS__C
0c1e16b8   ti_sysbios_knl_Queue_Object__PARAMS__C
0c1e1734   ti_sysbios_BIOS_Module__diagsMask__C
0c1e1738   paMemAligns
0c1e1748   ti_sysbios_family_c64p_EventCombiner_EVTMASK__C
0c1e1774   ti_sysbios_family_c66_Cache_initSize__C
0c1e1780   xdc_runtime_Startup_firstFxns__A
0c1e178c   ti_sysbios_BIOS_installedErrorHook__C
0c1e179c   ti_sysbios_family_c62_TaskSupport_stackAlignment__C
0c1e17ac   ti_sysbios_family_c64p_EventCombiner_E_unpluggedEvent__C
0c1e17d8   ti_sysbios_knl_Idle_funcList__C
0c1e17e0   ti_sysbios_knl_Task_hooks__C
0c1e17e8   xdc_runtime_Startup_firstFxns__C
0c1e17f0   xdc_runtime_Startup_lastFxns__A
0c1e17f8   xdc_runtime_Startup_lastFxns__C
0c1e1818   ti_sysbios_family_c64p_Exception_E_exceptionMin__C
0c1e181c   ti_sysbios_family_c64p_Exception_exceptionHook__C
0c1e1820   ti_sysbios_family_c64p_Exception_externalHook__C
0c1e1824   ti_sysbios_family_c64p_Exception_internalHook__C
0c1e1828   ti_sysbios_family_c64p_Exception_nmiHook__C
0c1e182c   ti_sysbios_family_c64p_Hwi_LD_end__C
0c1e1830   ti_sysbios_family_c64p_Hwi_LM_begin__C
0c1e1834   ti_sysbios_family_c64p_Hwi_Module__diagsEnabled__C
0c1e1838   ti_sysbios_family_c64p_Hwi_Module__diagsIncluded__C
0c1e183c   ti_sysbios_family_c64p_Hwi_Module__diagsMask__C
0c1e1840   ti_sysbios_family_c64p_Hwi_Module__loggerFxn1__C
0c1e1844   ti_sysbios_family_c64p_Hwi_Module__loggerFxn8__C
0c1e1848   ti_sysbios_family_c64p_Hwi_Module__loggerObj__C
0c1e184c   ti_sysbios_family_c66_Cache_atomicBlockSize__C
0c1e1850   ti_sysbios_gates_GateMutex_A_badContext__C
0c1e1854   ti_sysbios_gates_GateMutex_Instance_State_sem__O
0c1e1858   ti_sysbios_gates_GateMutex_Module__diagsEnabled__C
0c1e185c   ti_sysbios_gates_GateMutex_Module__diagsIncluded__C
0c1e1860   ti_sysbios_gates_GateMutex_Module__diagsMask__C
0c1e1864   ti_sysbios_heaps_HeapMem_A_align__C
0c1e1868   ti_sysbios_heaps_HeapMem_A_heapSize__C
0c1e186c   ti_sysbios_heaps_HeapMem_A_invalidFree__C
0c1e1870   ti_sysbios_heaps_HeapMem_A_zeroBlock__C
0c1e1874   ti_sysbios_heaps_HeapMem_E_memory__C
0c1e1878   ti_sysbios_heaps_HeapMem_Module__diagsEnabled__C
0c1e187c   ti_sysbios_heaps_HeapMem_Module__diagsIncluded__C
0c1e1880   ti_sysbios_heaps_HeapMem_Module__diagsMask__C
0c1e1884   ti_sysbios_heaps_HeapMem_Module__gateObj__C
0c1e1888   ti_sysbios_heaps_HeapMem_Object__count__C
0c1e188c   ti_sysbios_heaps_HeapMem_reqAlignMask__C
0c1e1890   ti_sysbios_heaps_HeapMem_reqAlign__C
0c1e1894   ti_sysbios_io_DEV_Object__count__C
0c1e1898   ti_sysbios_io_DEV_tableSize__C
0c1e189c   ti_sysbios_knl_Clock_A_badThreadType__C
0c1e18a0   ti_sysbios_knl_Clock_LM_begin__C
0c1e18a4   ti_sysbios_knl_Clock_LM_tick__C
0c1e18a8   ti_sysbios_knl_Clock_LW_delayed__C
0c1e18ac   ti_sysbios_knl_Clock_Module_State_clockQ__O
0c1e18b0   ti_sysbios_knl_Clock_Module__diagsEnabled__C
0c1e18b4   ti_sysbios_knl_Clock_Module__diagsIncluded__C
0c1e18b8   ti_sysbios_knl_Clock_Module__diagsMask__C
0c1e18bc   ti_sysbios_knl_Clock_Module__loggerFxn1__C
0c1e18c0   ti_sysbios_knl_Clock_Module__loggerFxn2__C
0c1e18c4   ti_sysbios_knl_Clock_Module__loggerObj__C
0c1e18c8   ti_sysbios_knl_Clock_tickMode__C
0c1e18cc   ti_sysbios_knl_Clock_tickSource__C
0c1e18d0   ti_sysbios_knl_Idle_funcList__A
0c1e18d4   ti_sysbios_knl_Mailbox_Instance_State_dataQue__O
0c1e18d8   ti_sysbios_knl_Mailbox_Instance_State_dataSem__O
0c1e18dc   ti_sysbios_knl_Mailbox_Instance_State_freeQue__O
0c1e18e0   ti_sysbios_knl_Mailbox_Instance_State_freeSem__O
0c1e18e4   ti_sysbios_knl_Mailbox_Object__count__C
0c1e18e8   ti_sysbios_knl_Semaphore_A_badContext__C
0c1e18ec   ti_sysbios_knl_Semaphore_A_noEvents__C
0c1e18f0   ti_sysbios_knl_Semaphore_A_overflow__C
0c1e18f4   ti_sysbios_knl_Semaphore_Instance_State_pendQ__O
0c1e18f8   ti_sysbios_knl_Semaphore_LM_pend__C
0c1e18fc   ti_sysbios_knl_Semaphore_LM_post__C
0c1e1900   ti_sysbios_knl_Semaphore_Module__diagsEnabled__C
0c1e1904   ti_sysbios_knl_Semaphore_Module__diagsIncluded__C
0c1e1908   ti_sysbios_knl_Semaphore_Module__diagsMask__C
0c1e190c   ti_sysbios_knl_Semaphore_Module__loggerFxn2__C
0c1e1910   ti_sysbios_knl_Semaphore_Module__loggerFxn4__C
0c1e1914   ti_sysbios_knl_Semaphore_Module__loggerObj__C
0c1e1918   ti_sysbios_knl_Swi_LD_end__C
0c1e191c   ti_sysbios_knl_Swi_LM_begin__C
0c1e1920   ti_sysbios_knl_Swi_LM_post__C
0c1e1924   ti_sysbios_knl_Swi_Module__diagsEnabled__C
0c1e1928   ti_sysbios_knl_Swi_Module__diagsIncluded__C
0c1e192c   ti_sysbios_knl_Swi_Module__diagsMask__C
0c1e1930   ti_sysbios_knl_Swi_Module__loggerFxn1__C
0c1e1934   ti_sysbios_knl_Swi_Module__loggerFxn4__C
0c1e1938   ti_sysbios_knl_Swi_Module__loggerObj__C
0c1e193c   ti_sysbios_knl_Swi_Object__count__C
0c1e1940   ti_sysbios_knl_Task_A_badPriority__C
0c1e1944   ti_sysbios_knl_Task_A_badTaskState__C
0c1e1948   ti_sysbios_knl_Task_A_badThreadType__C
0c1e194c   ti_sysbios_knl_Task_A_badTimeout__C
0c1e1950   ti_sysbios_knl_Task_A_noPendElem__C
0c1e1954   ti_sysbios_knl_Task_E_spOutOfBounds__C
0c1e1958   ti_sysbios_knl_Task_E_stackOverflow__C
0c1e195c   ti_sysbios_knl_Task_LD_block__C
0c1e1960   ti_sysbios_knl_Task_LD_exit__C
0c1e1964   ti_sysbios_knl_Task_LD_ready__C
0c1e1968   ti_sysbios_knl_Task_LM_setPri__C
0c1e196c   ti_sysbios_knl_Task_LM_sleep__C
0c1e1970   ti_sysbios_knl_Task_LM_switch__C
0c1e1974   ti_sysbios_knl_Task_Module_State_inactiveQ__O
0c1e1978   ti_sysbios_knl_Task_Module_State_terminatedQ__O
0c1e197c   ti_sysbios_knl_Task_Module__diagsEnabled__C
0c1e1980   ti_sysbios_knl_Task_Module__diagsIncluded__C
0c1e1984   ti_sysbios_knl_Task_Module__diagsMask__C
0c1e1988   ti_sysbios_knl_Task_Module__loggerFxn2__C
0c1e198c   ti_sysbios_knl_Task_Module__loggerFxn4__C
0c1e1990   ti_sysbios_knl_Task_Module__loggerObj__C
0c1e1994   ti_sysbios_knl_Task_Object__count__C
0c1e1998   ti_sysbios_knl_Task_Object__heap__C
0c1e199c   ti_sysbios_knl_Task_allBlockedFunc__C
0c1e19a0   ti_sysbios_knl_Task_defaultStackHeap__C
0c1e19a4   ti_sysbios_knl_Task_defaultStackSize__C
0c1e19a8   ti_sysbios_knl_Task_numConstructedTasks__C
0c1e19ac   ti_sysbios_knl_Task_numPriorities__C
0c1e19b0   ti_sysbios_timers_timer64_Timer_A_notAvailable__C
0c1e19b4   ti_sysbios_timers_timer64_Timer_E_cannotSupport__C
0c1e19b8   ti_sysbios_timers_timer64_Timer_Module__diagsEnabled__C
0c1e19bc   ti_sysbios_timers_timer64_Timer_Module__diagsIncluded__C
0c1e19c0   ti_sysbios_timers_timer64_Timer_Module__diagsMask__C
0c1e19c4   ti_sysbios_timers_timer64_Timer_anyMask__C
0c1e19c8   ti_sysbios_timers_timer64_Timer_freqDivisor__C
0c1e19cc   ti_sysbios_timers_timer64_Timer_numLocalTimers__C
0c1e19d0   ti_sysbios_timers_timer64_Timer_numTimerDevices__C
0c1e19d4   xdc_runtime_Assert_E_assertFailed__C
0c1e19d8   xdc_runtime_Core_A_initializedParams__C
0c1e19dc   xdc_runtime_Core_Module__diagsEnabled__C
0c1e19e0   xdc_runtime_Core_Module__diagsIncluded__C
0c1e19e4   xdc_runtime_Core_Module__diagsMask__C
0c1e19e8   xdc_runtime_Error_E_generic__C
0c1e19ec   xdc_runtime_Error_E_memory__C
0c1e19f0   xdc_runtime_Error_Module__diagsEnabled__C
0c1e19f4   xdc_runtime_Error_Module__diagsIncluded__C
0c1e19f8   xdc_runtime_Error_Module__diagsMask__C
0c1e19fc   xdc_runtime_Error_Module__loggerFxn8__C
0c1e1a00   xdc_runtime_Error_Module__loggerObj__C
0c1e1a04   xdc_runtime_Error_policy__C
0c1e1a08   xdc_runtime_Error_raiseHook__C
0c1e1a0c   xdc_runtime_IFilterLogger_Interface__BASE__C
0c1e1a10   xdc_runtime_IGateProvider_Interface__BASE__C
0c1e1a14   xdc_runtime_IHeap_Interface__BASE__C
0c1e1a18   xdc_runtime_ILogger_Interface__BASE__C
0c1e1a1c   xdc_runtime_IModule_Interface__BASE__C
0c1e1a20   xdc_runtime_Log_L_error__C
0c1e1a24   xdc_runtime_LoggerBuf_E_badLevel__C
0c1e1a28   xdc_runtime_LoggerBuf_Module__gateObj__C
0c1e1a2c   xdc_runtime_LoggerBuf_Object__count__C
0c1e1a30   xdc_runtime_LoggerBuf_statusLogger__C
0c1e1a34   xdc_runtime_Memory_defaultHeapInstance__C
0c1e1a38   xdc_runtime_Startup_execImpl__C
0c1e1a3c   xdc_runtime_Startup_maxPasses__C
0c1e1a40   xdc_runtime_Startup_sfxnRts__C
0c1e1a44   xdc_runtime_Startup_sfxnTab__C
0c1e1a48   xdc_runtime_SysMin_bufSize__C
0c1e1a4c   xdc_runtime_SysMin_outputFunc__C
0c1e1a50   xdc_runtime_System_Module__gateObj__C
0c1e1a54   xdc_runtime_System_extendFxn__C
0c1e1a58   xdc_runtime_System_maxAtexitHandlers__C
0c1e1a5c   xdc_runtime_Text_charTab__C
0c1e1a60   xdc_runtime_Text_nameEmpty__C
0c1e1a64   xdc_runtime_Text_nameStatic__C
0c1e1a68   xdc_runtime_Text_nameUnknown__C
0c1e1a6c   xdc_runtime_Text_nodeTab__C
0c1e1a70   xdc_runtime_Text_visitRopeFxn__C
0c1e1a74   ti_sysbios_BIOS_Module__id__C
0c1e1a78   ti_sysbios_family_c64p_EventCombiner_Module__id__C
0c1e1a7c   ti_sysbios_family_c64p_Exception_Module__id__C
0c1e1a80   ti_sysbios_family_c64p_Hwi_Module__id__C
0c1e1a84   ti_sysbios_family_c64p_Hwi_Module__loggerDefined__C
0c1e1a88   ti_sysbios_gates_GateMutex_Module__id__C
0c1e1a8c   ti_sysbios_heaps_HeapMem_Module__id__C
0c1e1a90   ti_sysbios_io_DEV_Module__id__C
0c1e1a94   ti_sysbios_knl_Clock_Module__id__C
0c1e1a98   ti_sysbios_knl_Clock_Module__loggerDefined__C
0c1e1a9c   ti_sysbios_knl_Semaphore_Module__id__C
0c1e1aa0   ti_sysbios_knl_Semaphore_Module__loggerDefined__C
0c1e1aa4   ti_sysbios_knl_Swi_Module__id__C
0c1e1aa8   ti_sysbios_knl_Swi_Module__loggerDefined__C
0c1e1aac   ti_sysbios_knl_Task_Module__id__C
0c1e1ab0   ti_sysbios_knl_Task_Module__loggerDefined__C
0c1e1ab4   ti_sysbios_knl_Task_deleteTerminatedTasks__C
0c1e1ab8   ti_sysbios_knl_Task_initStackFlag__C
0c1e1abc   ti_sysbios_timers_timer64_Timer_Module__id__C
0c1e1ac0   ti_sysbios_timers_timer64_Timer_startupNeeded__C
0c1e1ac4   xdc_runtime_Core_Module__id__C
0c1e1ac8   xdc_runtime_Error_Module__loggerDefined__C
0c1e1acc   xdc_runtime_Error_maxDepth__C
0c1e1ad0   xdc_runtime_LoggerBuf_Module__id__C
0c1e1ad4   xdc_runtime_LoggerBuf_filterByLevel__C
0c1e1ad8   xdc_runtime_Memory_Module__id__C
0c1e1adc   xdc_runtime_SysMin_flushAtExit__C
0c1e1ae0   xdc_runtime_Text_charCnt__C
0c1e1ae4   xdc_runtime_Text_isLoaded__C
0c1e1ae8   xdc_runtime_Text_registryModsLastId__C
0c1e1aec   xdc_runtime_Text_unnamedModsLastId__C
0c1e1af0   Qmss_lowEoiVector
0c1e1b00   queueFree
0c1e3b00   qmssGObj
0c1e3f00   ti_sysbios_BIOS_Module__state__V
0c1e3f1c   ti_sysbios_family_c64p_EventCombiner_Module__state__V
0c1e431c   ti_sysbios_family_c64p_Exception_Module__state__V
0c1e4348   ti_sysbios_family_c64p_Hwi_Module__root__V
0c1e4350   ti_sysbios_family_c64p_Hwi_Module__state__V
0c1e43b8   ti_sysbios_gates_GateHwi_Module__root__V
0c1e43c0   ti_sysbios_gates_GateMutex_Module__root__V
0c1e43c8   ti_sysbios_hal_Hwi_Module__root__V
0c1e43d0   ti_sysbios_hal_Timer_Module__root__V
0c1e43d8   ti_sysbios_heaps_HeapMem_Module__root__V
0c1e43e0   ti_sysbios_io_DEV_Module__root__V
0c1e43e8   ti_sysbios_io_DEV_Module__state__V
0c1e43ec   ti_sysbios_knl_Clock_Module__root__V
0c1e43f4   ti_sysbios_knl_Clock_Module__state__V
0c1e4420   ti_sysbios_knl_Event_Module__root__V
0c1e4428   ti_sysbios_knl_Mailbox_Module__root__V
0c1e4430   ti_sysbios_knl_Queue_Module__root__V
0c1e4438   ti_sysbios_knl_Semaphore_Module__root__V
0c1e4440   ti_sysbios_knl_Swi_Module__root__V
0c1e4448   ti_sysbios_knl_Swi_Module__state__V
0c1e4464   ti_sysbios_knl_Task_Module__root__V
0c1e446c   ti_sysbios_knl_Task_Module__state__V
0c1e44a0   ti_sysbios_timers_timer64_Timer_Module__root__V
0c1e44a8   ti_sysbios_timers_timer64_Timer_Module__state__V
0c1e44bc   xdc_runtime_Error_Module__state__V
0c1e44c0   xdc_runtime_LoggerBuf_Module__root__V
0c1e44c8   xdc_runtime_LoggerBuf_Module__state__V
0c1e44d0   xdc_runtime_Memory_Module__state__V
0c1e44d4   xdc_runtime_Registry_Module__state__V
0c1e44dc   xdc_runtime_Startup_Module__state__V
0c1e44e4   xdc_runtime_SysMin_Module__state__V
0c1e44f0   xdc_runtime_System_Module__state__V
0c1e44fc   xdc_runtime_Text_Module__state__V
0c1e4504   __xdc__init__addr
0c1e4508   _ftable
0c1e46e8   ti_sysbios_knl_Task_Object__table__V
0c1e483c   TSK_idle
0c1e4880   ti_sysbios_timers_timer64_Timer_Module_State_0_device__A
0c1e4a00   ti_sysbios_knl_Mailbox_Object__table__V
0c1e4b60   qmssGblCfgParams
0c1e4c80   Radar_qmssGblCfgParams
0c1e4d9c   _ft_end
0c1e4da0   ti_sysbios_knl_Task_Module_State_0_readyQ__A
0c1e4ea0   _ipcfg
0c1e4ff8   ti_sysbios_family_c64p_Hwi_Object__table__V
0c1e5088   ti_sysbios_knl_Swi_Module_State_0_readyQ__A
0c1e5108   ti_sysbios_timers_timer64_Timer_Module_State_0_gctrl__A
0c1e5188   ti_sysbios_timers_timer64_Timer_Module_State_0_handles__A
0c1e5208   ti_sysbios_timers_timer64_Timer_Module_State_0_intFreqs__A
0c1e5300   cppiGblCfgParams
0c1e5378   NIMUDeviceTable
0c1e53d0   ti_sysbios_timers_timer64_Timer_Object__table__V
0c1e541c   cppiLObj
0c1e5560   ti_sysbios_gates_GateMutex_Object__table__V
0c1e55d4   _cleanup_ptr
0c1e55d8   _dtors_ptr
0c1e55dc   __TI_enable_exit_profile_output
0c1e5610   ti_sysbios_knl_Swi_Object__table__V
0c1e5640   ti_sysbios_heaps_HeapMem_Object__table__V
0c1e5668   _oscfg
0c1e568c   paLObj
0c1e5690   xdc_runtime_LoggerBuf_Object__table__V
0c1e56b8   Qmss_highEoiVector
0c1e56d8   Radar_Qmss_highEoiVector
0c1e56f8   _lock
0c1e56fc   _unlock
0c1e5700   pstrMsgName
0c1e5720   ti_sysbios_io_DEV_Module_State_0_table__A
0c1e5758   Radar_Qmss_lowEoiVector
0c1e5768   ti_sysbios_hal_Hwi_Object__table__V
0c1e5778   xdc_runtime_System_Module_State_0_atexitHandlers__A
0c1e5788   ti_sysbios_hal_Timer_Object__table__V
0c1e57a8   ti_sysbios_gates_GateHwi_Object__table__V
0c1e57b0   Qmss_cdmaEoiVector
0c1e57b8   Radar_Qmss_cdmaEoiVector
0c1e5818   gDeviceNandBBlist
0c1e6a44   gDeviceNand
0c1e6a7c   gDeviceNor
0c1e6ab4   gDeviceEeprom0
0c1e6aec   gDeviceEeprom1
0c1e6b28   emac_port_mode
0c1e6b30   printlog
0c1e7530   DebugLog
0c1e7c00   ti_sysbios_family_c64p_Hwi0
0c1e7c20   ti_sysbios_family_c64p_Hwi1
0c1e7c40   ti_sysbios_family_c64p_Hwi2
0c1e7c60   ti_sysbios_family_c64p_Hwi3
0c1e7c80   ti_sysbios_family_c64p_Hwi4
0c1e7ca0   ti_sysbios_family_c64p_Hwi5
0c1e7cc0   ti_sysbios_family_c64p_Hwi6
0c1e7ce0   ti_sysbios_family_c64p_Hwi7
0c1e7d00   ti_sysbios_family_c64p_Hwi8
0c1e7d20   ti_sysbios_family_c64p_Hwi9
0c1e7d40   ti_sysbios_family_c64p_Hwi10
0c1e7d60   ti_sysbios_family_c64p_Hwi11
0c1e7d80   ti_sysbios_family_c64p_Hwi12
0c1e7da0   ti_sysbios_family_c64p_Hwi13
0c1e7dc0   ti_sysbios_family_c64p_Hwi14
0c1e7de0   ti_sysbios_family_c64p_Hwi15
0c1e8080   cppiObject
0c1e8280   _CSL_intcCpuIntrTable
0c1e8280   __TI_STATIC_BASE
0c1e82c4   _CSL_intcNumEvents
0c1e82c8   _CSL_intcEventHandlerRecord
0c1e82e4   _IGMPInDiscard
0c1e82e8   _IGMPInQuery
0c1e82ec   _IGMPInQueryGroup
0c1e82f0   _IGMPInResponse
0c1e82f4   _IGMPOutResponse
0c1e82f8   gTxCmdReturnQHnd
0c1e82fc   gTxCmdFreeQHnd
0c1e8300   ethSemHandle
0c1e8304   _CSL_intcAllocMask
0c1e8308   _CSL_intcEventOffsetMap
0c1e831c   uRecvCnt
0c1e8330   PITCount
0c1e8334   PITUsed
0c1e8338   PITHigh
0c1e8384   ti_ndk_config_Global_HostName
0c1e8388   LocalIPAddr
0c1e838c   LocalIPMask
0c1e8390   GatewayIP
0c1e8394   DomainName
0c1e83b4   _IGMPForceVersion1
0c1e83bc   ssd
0c1e83c0   csd
0c1e83dc   DebugLogSize
0c1e83e0   DebugCritError
0c1e83ec   _ICMPInErrors
0c1e83f0   _ICMPOutErrors
0c1e83f4   _IPExecuting
0c1e8414   tcp_iss
0c1e8418   ptTimeFirst
0c1e8424   platform_errno
0c1e8428   platform_init_return_code
0c1e843c   _IPReasmPtr
0c1e8450   qmssLObjIsValid
0c1e8454   ti_ndk_config_Global_rawPageSize
0c1e8458   ti_ndk_config_Global_rawPageCount
0c1e845c   ti_ndk_config_Global_smallest
0c1e8460   ti_ndk_config_Global_largest
0c1e8464   ti_ndk_config_Global_numFrameBuf
0c1e8468   ti_ndk_config_Global_sizeFrameBuf
0c1e846c   heapMem0
0c1e8470   hNetRecvTask
0c1e8474   hSigProcTask
0c1e8478   hHostCmdRespTask
0c1e847c   hHostCmdResponseMail
0c1e8480   hNetSendMail
0c1e8484   hProcBufMail
0c1e8488   hwi0
0c1e848c   hUpLoadDataMail
0c1e8490   hNetworkSendTask
0c1e84a0   Raco_Vec_C6678_SYN_MultiCore
0c1e84a0   Raco_Vec_C6678_Start
0c1e8660   __CIOBUF_
0c1e9a84   __TI_Handler_Table_Base
0c1e9a90   __TI_Handler_Table_Limit
0c1e9b40   __TI_CINIT_Base
0c1e9c18   __TI_CINIT_Limit
80000000   ti_sysbios_heaps_HeapMem_Instance_State_0_buf__A
ffffffff   __TI_pprof_out_hndl
ffffffff   __TI_prof_data_size
ffffffff   __TI_prof_data_start
ffffffff   __binit__
ffffffff   __c_args__
ffffffff   binit
UNDEFED    __TI_INITARRAY_Base
UNDEFED    __TI_INITARRAY_Limit

[1784 symbols]
